
.//fact.elf:     file format elf32-sparc


Disassembly of section .text:

00000000 <_start>:
       0:	9c 10 20 00 	clr  %sp
       4:	bc 10 00 00 	mov  %g0, %fp
       8:	a0 10 20 01 	mov  1, %l0
       c:	81 94 20 00 	mov  %l0, %wim
      10:	21 00 00 04 	sethi  %hi(0x1000), %l0
      14:	a0 14 20 00 	mov  %l0, %l0	! 1000 <trap_table_base>
      18:	81 9c 20 00 	mov  %l0, %tbr
      1c:	21 00 00 04 	sethi  %hi(0x1000), %l0
      20:	a0 14 20 e0 	or  %l0, 0xe0, %l0	! 10e0 <HW_trap_0x0e>
      24:	81 88 00 10 	mov  %l0, %psr
      28:	40 00 07 f6 	call  2000 <main>
      2c:	01 00 00 00 	nop 
      30:	91 d0 20 00 	ta  0

00000034 <genxd>:
      34:	9d e3 bf 88 	save  %sp, -120, %sp
      38:	31 10 00 00 	sethi  %hi(0x40000000), %i0
      3c:	b0 16 20 08 	or  %i0, 8, %i0	! 40000008 <datax>
      40:	81 e8 00 00 	restore 
      44:	81 c3 e0 08 	retl 
      48:	01 00 00 00 	nop 

0000004c <genxf>:
      4c:	9d e3 bf 88 	save  %sp, -120, %sp
      50:	31 10 00 0c 	sethi  %hi(0x40003000), %i0
      54:	b0 16 22 08 	or  %i0, 0x208, %i0	! 40003208 <dataxf>
      58:	81 e8 00 00 	restore 
      5c:	81 c3 e0 08 	retl 
      60:	01 00 00 00 	nop 

00000064 <genyd>:
      64:	9d e3 bf 88 	save  %sp, -120, %sp
      68:	31 10 00 19 	sethi  %hi(0x40006400), %i0
      6c:	b0 16 20 08 	or  %i0, 8, %i0	! 40006408 <datay>
      70:	81 e8 00 00 	restore 
      74:	81 c3 e0 08 	retl 
      78:	01 00 00 00 	nop 

0000007c <genyf>:
      7c:	9d e3 bf 88 	save  %sp, -120, %sp
      80:	31 10 00 25 	sethi  %hi(0x40009400), %i0
      84:	b0 16 22 08 	or  %i0, 0x208, %i0	! 40009608 <datayf>
      88:	81 e8 00 00 	restore 
      8c:	81 c3 e0 08 	retl 
      90:	01 00 00 00 	nop 

00000094 <saxpy>:
      94:	9d e3 bf 98 	save  %sp, -104, %sp
      98:	f0 27 a0 44 	st  %i0, [ %fp + 0x44 ]
      9c:	f2 27 a0 48 	st  %i1, [ %fp + 0x48 ]
      a0:	f4 27 a0 4c 	st  %i2, [ %fp + 0x4c ]
      a4:	f6 27 a0 50 	st  %i3, [ %fp + 0x50 ]
      a8:	f8 27 a0 54 	st  %i4, [ %fp + 0x54 ]
      ac:	fa 27 a0 58 	st  %i5, [ %fp + 0x58 ]
      b0:	d5 07 a0 48 	ld  [ %fp + 0x48 ], %f10
      b4:	97 a0 00 2a 	fmovs  %f10, %f11
      b8:	82 0e 20 01 	and  %i0, 1, %g1
      bc:	80 a0 60 00 	cmp  %g1, 0
      c0:	02 80 00 09 	be  e4 <four>
      c4:	a2 10 00 00 	mov  %g0, %l1
      c8:	d3 06 80 00 	ld  [ %i2 ], %f9
      cc:	d1 07 00 00 	ld  [ %i4 ], %f8
      d0:	93 a2 49 2a 	fmuls  %f9, %f10, %f9
      d4:	93 a2 48 28 	fadds  %f9, %f8, %f9
      d8:	d3 27 00 00 	st  %f9, [ %i4 ]
      dc:	a2 04 60 04 	add  %l1, 4, %l1
      e0:	b0 26 20 01 	dec  %i0

000000e4 <four>:
      e4:	80 8e 20 03 	btst  3, %i0
      e8:	b1 2e 20 02 	sll  %i0, 2, %i0
      ec:	02 80 00 16 	be  144 <check>
      f0:	80 a4 40 18 	cmp  %l1, %i0
      f4:	d1 1e 80 11 	ldd  [ %i2 + %l1 ], %f8
      f8:	cd 1f 00 11 	ldd  [ %i4 + %l1 ], %f6
      fc:	85 a2 28 ca 	vfmul32  %f8, %f10, %f2
     100:	91 a1 a8 42 	vfadd32  %f6, %f2, %f8
     104:	d1 3f 00 11 	std  %f8, [ %i4 + %l1 ]
     108:	a2 04 60 08 	add  %l1, 8, %l1
     10c:	10 80 00 0e 	b  144 <check>
     110:	80 a4 40 18 	cmp  %l1, %i0

00000114 <loop>:
     114:	c1 1e 80 11 	ldd  [ %i2 + %l1 ], %f0
     118:	c5 1f 00 11 	ldd  [ %i4 + %l1 ], %f2
     11c:	c9 1e 80 12 	ldd  [ %i2 + %l2 ], %f4
     120:	cd 1f 00 12 	ldd  [ %i4 + %l2 ], %f6
     124:	91 a0 28 ca 	vfmul32  %f0, %f10, %f8
     128:	99 a0 a8 48 	vfadd32  %f2, %f8, %f12
     12c:	91 a1 28 ca 	vfmul32  %f4, %f10, %f8
     130:	9d a1 a8 48 	vfadd32  %f6, %f8, %f14
     134:	d9 3f 00 11 	std  %f12, [ %i4 + %l1 ]
     138:	dd 3f 00 12 	std  %f14, [ %i4 + %l2 ]
     13c:	a2 04 60 10 	add  %l1, 0x10, %l1
     140:	80 a4 40 18 	cmp  %l1, %i0

00000144 <check>:
     144:	06 bf ff f4 	bl  114 <loop>
     148:	a4 04 60 08 	add  %l1, 8, %l2
     14c:	b0 10 00 1c 	mov  %i4, %i0
     150:	81 e8 00 00 	restore 
     154:	81 c3 e0 08 	retl 
     158:	01 00 00 00 	nop 

0000015c <u8axpy>:
     15c:	9d e3 bf 98 	save  %sp, -104, %sp
     160:	f0 27 a0 44 	st  %i0, [ %fp + 0x44 ]
     164:	f2 2f a0 48 	stb  %i1, [ %fp + 0x48 ]
     168:	f4 27 a0 4c 	st  %i2, [ %fp + 0x4c ]
     16c:	f6 27 a0 50 	st  %i3, [ %fp + 0x50 ]
     170:	f8 27 a0 54 	st  %i4, [ %fp + 0x54 ]
     174:	fa 27 a0 58 	st  %i5, [ %fp + 0x58 ]
     178:	ac 10 20 00 	clr  %l6
     17c:	84 10 20 08 	mov  8, %g2
     180:	86 10 3f f8 	mov  -8, %g3
     184:	a8 10 00 19 	mov  %i1, %l4
     188:	83 2d 20 08 	sll  %l4, 8, %g1
     18c:	a8 15 00 01 	or  %l4, %g1, %l4
     190:	83 2d 20 10 	sll  %l4, 0x10, %g1
     194:	a8 15 00 01 	or  %l4, %g1, %l4
     198:	aa 10 00 14 	mov  %l4, %l5
     19c:	10 80 00 07 	b  1b8 <check>
     1a0:	ae 10 00 18 	mov  %i0, %l7

000001a4 <loop>:
     1a4:	e4 1f 00 16 	ldd  [ %i4 + %l6 ], %l2
     1a8:	a0 54 00 d4 	vumuld8  %l0, %l4, %l0
     1ac:	a4 04 80 d0 	vaddd8  %l2, %l0, %l2
     1b0:	e4 3f 00 16 	std  %l2, [ %i4 + %l6 ]
     1b4:	ac 05 82 42 	vaddd32  %l6, %g2, %l6

000001b8 <check>:
     1b8:	80 a5 e0 07 	cmp  %l7, 7
     1bc:	34 bf ff fa 	bg,a   1a4 <loop>
     1c0:	e0 1e 80 16 	ldd  [ %i2 + %l6 ], %l0
     1c4:	80 a5 e0 01 	cmp  %l7, 1
     1c8:	22 80 00 39 	be,a   2ac <one>
     1cc:	c4 0e 80 16 	ldub  [ %i2 + %l6 ], %g2
     1d0:	80 a5 e0 02 	cmp  %l7, 2
     1d4:	22 80 00 30 	be,a   294 <two>
     1d8:	c4 0e 80 16 	ldub  [ %i2 + %l6 ], %g2
     1dc:	80 a5 e0 03 	cmp  %l7, 3
     1e0:	22 80 00 27 	be,a   27c <three>
     1e4:	c4 0e 80 16 	ldub  [ %i2 + %l6 ], %g2
     1e8:	80 a5 e0 04 	cmp  %l7, 4
     1ec:	22 80 00 1e 	be,a   264 <four>
     1f0:	c4 0e 80 16 	ldub  [ %i2 + %l6 ], %g2
     1f4:	80 a5 e0 05 	cmp  %l7, 5
     1f8:	22 80 00 15 	be,a   24c <five>
     1fc:	c4 0e 80 16 	ldub  [ %i2 + %l6 ], %g2
     200:	80 a5 e0 06 	cmp  %l7, 6
     204:	22 80 00 0c 	be,a   234 <six>
     208:	c4 0e 80 16 	ldub  [ %i2 + %l6 ], %g2
     20c:	80 a5 e0 07 	cmp  %l7, 7
     210:	32 80 00 2d 	bne,a   2c4 <store>
     214:	b0 10 00 1c 	mov  %i4, %i0
     218:	c4 0e 80 16 	ldub  [ %i2 + %l6 ], %g2
     21c:	c6 0f 00 16 	ldub  [ %i4 + %l6 ], %g3
     220:	84 50 80 19 	umul  %g2, %i1, %g2
     224:	84 00 80 03 	add  %g2, %g3, %g2
     228:	c4 2f 00 16 	stb  %g2, [ %i4 + %l6 ]
     22c:	ac 05 a0 01 	inc  %l6
     230:	c4 0e 80 16 	ldub  [ %i2 + %l6 ], %g2

00000234 <six>:
     234:	c6 0f 00 16 	ldub  [ %i4 + %l6 ], %g3
     238:	84 50 80 19 	umul  %g2, %i1, %g2
     23c:	84 00 80 03 	add  %g2, %g3, %g2
     240:	c4 2f 00 16 	stb  %g2, [ %i4 + %l6 ]
     244:	ac 05 a0 01 	inc  %l6
     248:	c4 0e 80 16 	ldub  [ %i2 + %l6 ], %g2

0000024c <five>:
     24c:	c6 0f 00 16 	ldub  [ %i4 + %l6 ], %g3
     250:	84 50 80 19 	umul  %g2, %i1, %g2
     254:	84 00 80 03 	add  %g2, %g3, %g2
     258:	c4 2f 00 16 	stb  %g2, [ %i4 + %l6 ]
     25c:	ac 05 a0 01 	inc  %l6
     260:	c4 0e 80 16 	ldub  [ %i2 + %l6 ], %g2

00000264 <four>:
     264:	c6 0f 00 16 	ldub  [ %i4 + %l6 ], %g3
     268:	84 50 80 19 	umul  %g2, %i1, %g2
     26c:	84 00 80 03 	add  %g2, %g3, %g2
     270:	c4 2f 00 16 	stb  %g2, [ %i4 + %l6 ]
     274:	ac 05 a0 01 	inc  %l6
     278:	c4 0e 80 16 	ldub  [ %i2 + %l6 ], %g2

0000027c <three>:
     27c:	c6 0f 00 16 	ldub  [ %i4 + %l6 ], %g3
     280:	84 50 80 19 	umul  %g2, %i1, %g2
     284:	84 00 80 03 	add  %g2, %g3, %g2
     288:	c4 2f 00 16 	stb  %g2, [ %i4 + %l6 ]
     28c:	ac 05 a0 01 	inc  %l6
     290:	c4 0e 80 16 	ldub  [ %i2 + %l6 ], %g2

00000294 <two>:
     294:	c6 0f 00 16 	ldub  [ %i4 + %l6 ], %g3
     298:	84 50 80 19 	umul  %g2, %i1, %g2
     29c:	84 00 80 03 	add  %g2, %g3, %g2
     2a0:	c4 2f 00 16 	stb  %g2, [ %i4 + %l6 ]
     2a4:	ac 05 a0 01 	inc  %l6
     2a8:	c4 0e 80 16 	ldub  [ %i2 + %l6 ], %g2

000002ac <one>:
     2ac:	c6 0f 00 16 	ldub  [ %i4 + %l6 ], %g3
     2b0:	84 50 80 19 	umul  %g2, %i1, %g2
     2b4:	84 00 80 03 	add  %g2, %g3, %g2
     2b8:	c4 2f 00 16 	stb  %g2, [ %i4 + %l6 ]
     2bc:	ac 05 a0 01 	inc  %l6
     2c0:	b0 10 00 1c 	mov  %i4, %i0

000002c4 <store>:
     2c4:	81 e8 00 00 	restore 
     2c8:	81 c3 e0 08 	retl 
     2cc:	01 00 00 00 	nop 

000002d0 <u16axpy>:
     2d0:	9d e3 bf 98 	save  %sp, -104, %sp
     2d4:	f0 27 a0 44 	st  %i0, [ %fp + 0x44 ]
     2d8:	f2 37 a0 48 	sth  %i1, [ %fp + 0x48 ]
     2dc:	f4 27 a0 4c 	st  %i2, [ %fp + 0x4c ]
     2e0:	f6 27 a0 50 	st  %i3, [ %fp + 0x50 ]
     2e4:	f8 27 a0 54 	st  %i4, [ %fp + 0x54 ]
     2e8:	fa 27 a0 58 	st  %i5, [ %fp + 0x58 ]
     2ec:	ac 10 20 00 	clr  %l6
     2f0:	84 10 20 08 	mov  8, %g2
     2f4:	86 10 3f fc 	mov  -4, %g3
     2f8:	a8 10 00 19 	mov  %i1, %l4
     2fc:	83 2d 20 10 	sll  %l4, 0x10, %g1
     300:	a8 15 00 01 	or  %l4, %g1, %l4
     304:	aa 10 00 14 	mov  %l4, %l5
     308:	10 80 00 07 	b  324 <check>
     30c:	ae 10 00 18 	mov  %i0, %l7

00000310 <loop>:
     310:	e4 1f 00 16 	ldd  [ %i4 + %l6 ], %l2
     314:	a0 54 01 54 	vumuld16  %l0, %l4, %l0
     318:	a4 04 81 50 	vaddd16  %l2, %l0, %l2
     31c:	e4 3f 00 16 	std  %l2, [ %i4 + %l6 ]
     320:	ac 05 82 42 	vaddd32  %l6, %g2, %l6

00000324 <check>:
     324:	80 a5 e0 03 	cmp  %l7, 3
     328:	14 bf ff fa 	bg  310 <loop>
     32c:	e0 1e 80 16 	ldd  [ %i2 + %l6 ], %l0
     330:	80 a5 e0 01 	cmp  %l7, 1
     334:	02 80 00 15 	be  388 <one>
     338:	c4 16 80 16 	lduh  [ %i2 + %l6 ], %g2
     33c:	80 a5 e0 02 	cmp  %l7, 2
     340:	02 80 00 0c 	be  370 <two>
     344:	c4 16 80 16 	lduh  [ %i2 + %l6 ], %g2
     348:	80 a5 e0 03 	cmp  %l7, 3
     34c:	12 80 00 15 	bne  3a0 <store>
     350:	b0 10 00 1c 	mov  %i4, %i0
     354:	c4 16 80 16 	lduh  [ %i2 + %l6 ], %g2
     358:	84 50 80 19 	umul  %g2, %i1, %g2
     35c:	c6 17 00 16 	lduh  [ %i4 + %l6 ], %g3
     360:	84 00 80 03 	add  %g2, %g3, %g2
     364:	c4 37 00 16 	sth  %g2, [ %i4 + %l6 ]
     368:	ac 05 a0 02 	add  %l6, 2, %l6
     36c:	c4 16 80 16 	lduh  [ %i2 + %l6 ], %g2

00000370 <two>:
     370:	84 50 80 19 	umul  %g2, %i1, %g2
     374:	c6 17 00 16 	lduh  [ %i4 + %l6 ], %g3
     378:	84 00 80 03 	add  %g2, %g3, %g2
     37c:	c4 37 00 16 	sth  %g2, [ %i4 + %l6 ]
     380:	ac 05 a0 02 	add  %l6, 2, %l6
     384:	c4 16 80 16 	lduh  [ %i2 + %l6 ], %g2

00000388 <one>:
     388:	84 50 80 19 	umul  %g2, %i1, %g2
     38c:	c6 17 00 16 	lduh  [ %i4 + %l6 ], %g3
     390:	84 00 80 03 	add  %g2, %g3, %g2
     394:	c4 37 00 16 	sth  %g2, [ %i4 + %l6 ]
     398:	ac 05 a0 02 	add  %l6, 2, %l6
     39c:	b0 10 00 1c 	mov  %i4, %i0

000003a0 <store>:
     3a0:	81 e8 00 00 	restore 
     3a4:	81 c3 e0 08 	retl 
     3a8:	01 00 00 00 	nop 

000003ac <u32axpy>:
     3ac:	9d e3 bf 98 	save  %sp, -104, %sp
     3b0:	f0 27 a0 44 	st  %i0, [ %fp + 0x44 ]
     3b4:	f2 27 a0 48 	st  %i1, [ %fp + 0x48 ]
     3b8:	f4 27 a0 4c 	st  %i2, [ %fp + 0x4c ]
     3bc:	f6 27 a0 50 	st  %i3, [ %fp + 0x50 ]
     3c0:	f8 27 a0 54 	st  %i4, [ %fp + 0x54 ]
     3c4:	fa 27 a0 58 	st  %i5, [ %fp + 0x58 ]
     3c8:	a8 10 00 19 	mov  %i1, %l4
     3cc:	aa 10 00 14 	mov  %l4, %l5
     3d0:	8c 10 20 10 	mov  0x10, %g6
     3d4:	8e 10 20 18 	mov  0x18, %g7
     3d8:	ae 10 20 08 	mov  8, %l7
     3dc:	82 0e 20 01 	and  %i0, 1, %g1
     3e0:	80 a0 60 00 	cmp  %g1, 0
     3e4:	02 80 00 0a 	be  40c <four>
     3e8:	ac 10 00 00 	mov  %g0, %l6
     3ec:	e2 06 80 00 	ld  [ %i2 ], %l1
     3f0:	e4 07 00 00 	ld  [ %i4 ], %l2
     3f4:	a2 54 40 14 	umul  %l1, %l4, %l1
     3f8:	a2 04 40 12 	add  %l1, %l2, %l1
     3fc:	e2 27 00 00 	st  %l1, [ %i4 ]
     400:	ac 05 a0 04 	add  %l6, 4, %l6
     404:	ae 05 e0 04 	add  %l7, 4, %l7
     408:	b0 26 20 01 	dec  %i0

0000040c <four>:
     40c:	80 8e 20 03 	btst  3, %i0
     410:	b1 2e 20 02 	sll  %i0, 2, %i0
     414:	02 80 00 16 	be  46c <check>
     418:	80 a5 80 18 	cmp  %l6, %i0
     41c:	e0 1e 80 16 	ldd  [ %i2 + %l6 ], %l0
     420:	e4 1f 00 16 	ldd  [ %i4 + %l6 ], %l2
     424:	a0 54 02 54 	vumuld32  %l0, %l4, %l0
     428:	a4 04 82 50 	vaddd32  %l2, %l0, %l2
     42c:	e4 3f 00 16 	std  %l2, [ %i4 + %l6 ]
     430:	ac 05 a0 08 	add  %l6, 8, %l6
     434:	ae 05 e0 08 	add  %l7, 8, %l7
     438:	10 80 00 0d 	b  46c <check>
     43c:	80 a5 80 18 	cmp  %l6, %i0

00000440 <loop>:
     440:	e4 1f 00 16 	ldd  [ %i4 + %l6 ], %l2
     444:	a0 54 02 54 	vumuld32  %l0, %l4, %l0
     448:	a4 04 82 50 	vaddd32  %l2, %l0, %l2
     44c:	e4 3f 00 16 	std  %l2, [ %i4 + %l6 ]
     450:	e0 1e 80 17 	ldd  [ %i2 + %l7 ], %l0
     454:	e4 1f 00 17 	ldd  [ %i4 + %l7 ], %l2
     458:	a0 54 02 54 	vumuld32  %l0, %l4, %l0
     45c:	a4 04 82 50 	vaddd32  %l2, %l0, %l2
     460:	e4 3f 00 17 	std  %l2, [ %i4 + %l7 ]
     464:	ac 05 82 46 	vaddd32  %l6, %g6, %l6
     468:	80 a5 80 18 	cmp  %l6, %i0

0000046c <check>:
     46c:	06 bf ff f5 	bl  440 <loop>
     470:	e0 1e 80 16 	ldd  [ %i2 + %l6 ], %l0
     474:	b0 10 00 1c 	mov  %i4, %i0
     478:	81 e8 00 00 	restore 
     47c:	81 c3 e0 08 	retl 
     480:	01 00 00 00 	nop 

00000484 <saxpyf>:
     484:	9c 03 bf b0 	add  %sp, -80, %sp
     488:	d2 23 a0 4c 	st  %o1, [ %sp + 0x4c ]
     48c:	88 10 00 08 	mov  %o0, %g4
     490:	d1 03 a0 4c 	ld  [ %sp + 0x4c ], %f8
     494:	80 a3 60 01 	cmp  %o5, 1
     498:	12 80 00 3c 	bne  588 <saxpyf+0x104>
     49c:	90 10 00 0c 	mov  %o4, %o0
     4a0:	80 a2 e0 01 	cmp  %o3, 1
     4a4:	12 80 00 39 	bne  588 <saxpyf+0x104>
     4a8:	85 39 20 1f 	sra  %g4, 0x1f, %g2
     4ac:	85 30 a0 1e 	srl  %g2, 0x1e, %g2
     4b0:	82 10 20 00 	clr  %g1
     4b4:	86 01 00 02 	add  %g4, %g2, %g3
     4b8:	86 08 e0 03 	and  %g3, 3, %g3
     4bc:	86 20 c0 02 	sub  %g3, %g2, %g3
     4c0:	80 a0 e0 00 	cmp  %g3, 0
     4c4:	04 80 00 0b 	ble  4f0 <saxpyf+0x6c>
     4c8:	85 28 e0 02 	sll  %g3, 2, %g2
     4cc:	d3 02 80 01 	ld  [ %o2 + %g1 ], %f9
     4d0:	d5 02 00 01 	ld  [ %o0 + %g1 ], %f10
     4d4:	93 a2 09 29 	fmuls  %f8, %f9, %f9
     4d8:	93 a2 88 29 	fadds  %f10, %f9, %f9
     4dc:	d3 22 00 01 	st  %f9, [ %o0 + %g1 ]
     4e0:	82 00 60 04 	add  %g1, 4, %g1
     4e4:	80 a0 40 02 	cmp  %g1, %g2
     4e8:	32 bf ff fa 	bne,a   4d0 <saxpyf+0x4c>
     4ec:	d3 02 80 01 	ld  [ %o2 + %g1 ], %f9
     4f0:	82 00 e0 03 	add  %g3, 3, %g1
     4f4:	80 a1 00 01 	cmp  %g4, %g1
     4f8:	04 80 00 24 	ble  588 <saxpyf+0x104>
     4fc:	9a 00 e0 01 	add  %g3, 1, %o5
     500:	84 02 20 14 	add  %o0, 0x14, %g2
     504:	9b 2b 60 02 	sll  %o5, 2, %o5
     508:	88 01 3f fc 	add  %g4, -4, %g4
     50c:	82 02 00 0d 	add  %o0, %o5, %g1
     510:	88 21 00 03 	sub  %g4, %g3, %g4
     514:	94 02 80 0d 	add  %o2, %o5, %o2
     518:	88 09 3f fc 	and  %g4, -4, %g4
     51c:	86 00 c0 04 	add  %g3, %g4, %g3
     520:	87 28 e0 02 	sll  %g3, 2, %g3
     524:	84 00 80 03 	add  %g2, %g3, %g2
     528:	d3 02 bf fc 	ld  [ %o2 + -4 ], %f9
     52c:	db 00 7f fc 	ld  [ %g1 + -4 ], %f13
     530:	93 a2 09 29 	fmuls  %f8, %f9, %f9
     534:	93 a3 48 29 	fadds  %f13, %f9, %f9
     538:	d9 00 40 00 	ld  [ %g1 ], %f12
     53c:	d3 20 7f fc 	st  %f9, [ %g1 + -4 ]
     540:	d3 02 80 00 	ld  [ %o2 ], %f9
     544:	93 a2 09 29 	fmuls  %f8, %f9, %f9
     548:	93 a3 08 29 	fadds  %f12, %f9, %f9
     54c:	d7 00 60 04 	ld  [ %g1 + 4 ], %f11
     550:	d3 20 40 00 	st  %f9, [ %g1 ]
     554:	d3 02 a0 04 	ld  [ %o2 + 4 ], %f9
     558:	93 a2 09 29 	fmuls  %f8, %f9, %f9
     55c:	93 a2 c8 29 	fadds  %f11, %f9, %f9
     560:	d5 00 60 08 	ld  [ %g1 + 8 ], %f10
     564:	d3 20 60 04 	st  %f9, [ %g1 + 4 ]
     568:	d3 02 a0 08 	ld  [ %o2 + 8 ], %f9
     56c:	93 a2 09 29 	fmuls  %f8, %f9, %f9
     570:	93 a2 88 29 	fadds  %f10, %f9, %f9
     574:	d3 20 60 08 	st  %f9, [ %g1 + 8 ]
     578:	82 00 60 10 	add  %g1, 0x10, %g1
     57c:	80 a0 40 02 	cmp  %g1, %g2
     580:	12 bf ff ea 	bne  528 <saxpyf+0xa4>
     584:	94 02 a0 10 	add  %o2, 0x10, %o2
     588:	81 c3 e0 08 	retl 
     58c:	9c 23 bf b0 	sub  %sp, -80, %sp

00000590 <u8axpyf>:
     590:	9d e3 bf a0 	save  %sp, -96, %sp
     594:	9e 10 00 18 	mov  %i0, %o7
     598:	80 a7 60 01 	cmp  %i5, 1
     59c:	12 80 00 38 	bne  67c <u8axpyf+0xec>
     5a0:	b0 10 00 1c 	mov  %i4, %i0
     5a4:	80 a6 e0 01 	cmp  %i3, 1
     5a8:	12 80 00 35 	bne  67c <u8axpyf+0xec>
     5ac:	85 3b e0 1f 	sra  %o7, 0x1f, %g2
     5b0:	85 30 a0 1e 	srl  %g2, 0x1e, %g2
     5b4:	88 03 c0 02 	add  %o7, %g2, %g4
     5b8:	88 09 20 03 	and  %g4, 3, %g4
     5bc:	88 21 00 02 	sub  %g4, %g2, %g4
     5c0:	80 a1 20 00 	cmp  %g4, 0
     5c4:	04 80 00 0b 	ble  5f0 <u8axpyf+0x60>
     5c8:	82 10 20 00 	clr  %g1
     5cc:	c4 0e 80 01 	ldub  [ %i2 + %g1 ], %g2
     5d0:	c6 0e 00 01 	ldub  [ %i0 + %g1 ], %g3
     5d4:	84 5e 40 02 	smul  %i1, %g2, %g2
     5d8:	84 00 80 03 	add  %g2, %g3, %g2
     5dc:	c4 2e 00 01 	stb  %g2, [ %i0 + %g1 ]
     5e0:	82 00 60 01 	inc  %g1
     5e4:	80 a0 40 04 	cmp  %g1, %g4
     5e8:	32 bf ff fa 	bne,a   5d0 <u8axpyf+0x40>
     5ec:	c4 0e 80 01 	ldub  [ %i2 + %g1 ], %g2
     5f0:	82 01 20 03 	add  %g4, 3, %g1
     5f4:	80 a3 c0 01 	cmp  %o7, %g1
     5f8:	04 80 00 21 	ble  67c <u8axpyf+0xec>
     5fc:	b6 01 20 04 	add  %g4, 4, %i3
     600:	9e 03 ff fc 	add  %o7, -4, %o7
     604:	b6 06 00 1b 	add  %i0, %i3, %i3
     608:	9e 23 c0 04 	sub  %o7, %g4, %o7
     60c:	82 06 00 04 	add  %i0, %g4, %g1
     610:	9e 0b ff fc 	and  %o7, -4, %o7
     614:	b4 06 80 04 	add  %i2, %g4, %i2
     618:	b6 06 c0 0f 	add  %i3, %o7, %i3
     61c:	c4 0e 80 00 	ldub  [ %i2 ], %g2
     620:	f8 08 40 00 	ldub  [ %g1 ], %i4
     624:	84 5e 40 02 	smul  %i1, %g2, %g2
     628:	84 00 80 1c 	add  %g2, %i4, %g2
     62c:	fa 08 60 01 	ldub  [ %g1 + 1 ], %i5
     630:	c4 28 40 00 	stb  %g2, [ %g1 ]
     634:	c4 0e a0 01 	ldub  [ %i2 + 1 ], %g2
     638:	84 5e 40 02 	smul  %i1, %g2, %g2
     63c:	84 00 80 1d 	add  %g2, %i5, %g2
     640:	c8 08 60 02 	ldub  [ %g1 + 2 ], %g4
     644:	c4 28 60 01 	stb  %g2, [ %g1 + 1 ]
     648:	c4 0e a0 02 	ldub  [ %i2 + 2 ], %g2
     64c:	84 5e 40 02 	smul  %i1, %g2, %g2
     650:	84 00 80 04 	add  %g2, %g4, %g2
     654:	c6 08 60 03 	ldub  [ %g1 + 3 ], %g3
     658:	c4 28 60 02 	stb  %g2, [ %g1 + 2 ]
     65c:	c4 0e a0 03 	ldub  [ %i2 + 3 ], %g2
     660:	84 5e 40 02 	smul  %i1, %g2, %g2
     664:	84 00 80 03 	add  %g2, %g3, %g2
     668:	c4 28 60 03 	stb  %g2, [ %g1 + 3 ]
     66c:	82 00 60 04 	add  %g1, 4, %g1
     670:	80 a0 40 1b 	cmp  %g1, %i3
     674:	12 bf ff ea 	bne  61c <u8axpyf+0x8c>
     678:	b4 06 a0 04 	add  %i2, 4, %i2
     67c:	81 c7 e0 08 	ret 
     680:	81 e8 00 00 	restore 

00000684 <u16axpyf>:
     684:	9d e3 bf a0 	save  %sp, -96, %sp
     688:	9e 10 00 18 	mov  %i0, %o7
     68c:	80 a7 60 01 	cmp  %i5, 1
     690:	12 80 00 3c 	bne  780 <u16axpyf+0xfc>
     694:	b0 10 00 1c 	mov  %i4, %i0
     698:	80 a6 e0 01 	cmp  %i3, 1
     69c:	12 80 00 39 	bne  780 <u16axpyf+0xfc>
     6a0:	85 3b e0 1f 	sra  %o7, 0x1f, %g2
     6a4:	ba 10 00 19 	mov  %i1, %i5
     6a8:	85 30 a0 1e 	srl  %g2, 0x1e, %g2
     6ac:	82 10 20 00 	clr  %g1
     6b0:	b8 03 c0 02 	add  %o7, %g2, %i4
     6b4:	b8 0f 20 03 	and  %i4, 3, %i4
     6b8:	b8 27 00 02 	sub  %i4, %g2, %i4
     6bc:	80 a7 20 00 	cmp  %i4, 0
     6c0:	04 80 00 0b 	ble  6ec <u16axpyf+0x68>
     6c4:	88 07 00 1c 	add  %i4, %i4, %g4
     6c8:	c4 16 80 01 	lduh  [ %i2 + %g1 ], %g2
     6cc:	c6 16 00 01 	lduh  [ %i0 + %g1 ], %g3
     6d0:	84 58 80 1d 	smul  %g2, %i5, %g2
     6d4:	84 00 80 03 	add  %g2, %g3, %g2
     6d8:	c4 36 00 01 	sth  %g2, [ %i0 + %g1 ]
     6dc:	82 00 60 02 	add  %g1, 2, %g1
     6e0:	80 a0 40 04 	cmp  %g1, %g4
     6e4:	32 bf ff fa 	bne,a   6cc <u16axpyf+0x48>
     6e8:	c4 16 80 01 	lduh  [ %i2 + %g1 ], %g2
     6ec:	82 07 20 03 	add  %i4, 3, %g1
     6f0:	80 a3 c0 01 	cmp  %o7, %g1
     6f4:	04 80 00 23 	ble  780 <u16axpyf+0xfc>
     6f8:	84 07 00 1c 	add  %i4, %i4, %g2
     6fc:	b6 06 20 08 	add  %i0, 8, %i3
     700:	9e 03 ff fc 	add  %o7, -4, %o7
     704:	82 06 00 02 	add  %i0, %g2, %g1
     708:	9e 23 c0 1c 	sub  %o7, %i4, %o7
     70c:	b4 06 80 02 	add  %i2, %g2, %i2
     710:	9e 0b ff fc 	and  %o7, -4, %o7
     714:	b8 07 00 0f 	add  %i4, %o7, %i4
     718:	b8 07 00 1c 	add  %i4, %i4, %i4
     71c:	b6 06 c0 1c 	add  %i3, %i4, %i3
     720:	c4 16 80 00 	lduh  [ %i2 ], %g2
     724:	f8 10 40 00 	lduh  [ %g1 ], %i4
     728:	84 58 80 19 	smul  %g2, %i1, %g2
     72c:	84 00 80 1c 	add  %g2, %i4, %g2
     730:	fa 10 60 02 	lduh  [ %g1 + 2 ], %i5
     734:	c4 30 40 00 	sth  %g2, [ %g1 ]
     738:	c4 16 a0 02 	lduh  [ %i2 + 2 ], %g2
     73c:	84 58 80 19 	smul  %g2, %i1, %g2
     740:	84 00 80 1d 	add  %g2, %i5, %g2
     744:	c8 10 60 04 	lduh  [ %g1 + 4 ], %g4
     748:	c4 30 60 02 	sth  %g2, [ %g1 + 2 ]
     74c:	c4 16 a0 04 	lduh  [ %i2 + 4 ], %g2
     750:	84 58 80 19 	smul  %g2, %i1, %g2
     754:	84 00 80 04 	add  %g2, %g4, %g2
     758:	c6 10 60 06 	lduh  [ %g1 + 6 ], %g3
     75c:	c4 30 60 04 	sth  %g2, [ %g1 + 4 ]
     760:	c4 16 a0 06 	lduh  [ %i2 + 6 ], %g2
     764:	84 58 80 19 	smul  %g2, %i1, %g2
     768:	84 00 80 03 	add  %g2, %g3, %g2
     76c:	c4 30 60 06 	sth  %g2, [ %g1 + 6 ]
     770:	82 00 60 08 	add  %g1, 8, %g1
     774:	80 a0 40 1b 	cmp  %g1, %i3
     778:	12 bf ff ea 	bne  720 <u16axpyf+0x9c>
     77c:	b4 06 a0 08 	add  %i2, 8, %i2
     780:	81 c7 e0 08 	ret 
     784:	81 e8 00 00 	restore 

00000788 <u32axpyf>:
     788:	9d e3 bf a0 	save  %sp, -96, %sp
     78c:	9e 10 00 18 	mov  %i0, %o7
     790:	80 a7 60 01 	cmp  %i5, 1
     794:	12 80 00 3c 	bne  884 <u32axpyf+0xfc>
     798:	b0 10 00 1c 	mov  %i4, %i0
     79c:	80 a6 e0 01 	cmp  %i3, 1
     7a0:	12 80 00 39 	bne  884 <u32axpyf+0xfc>
     7a4:	85 3b e0 1f 	sra  %o7, 0x1f, %g2
     7a8:	82 10 20 00 	clr  %g1
     7ac:	85 30 a0 1e 	srl  %g2, 0x1e, %g2
     7b0:	ba 03 c0 02 	add  %o7, %g2, %i5
     7b4:	ba 0f 60 03 	and  %i5, 3, %i5
     7b8:	ba 27 40 02 	sub  %i5, %g2, %i5
     7bc:	80 a7 60 00 	cmp  %i5, 0
     7c0:	04 80 00 0b 	ble  7ec <u32axpyf+0x64>
     7c4:	89 2f 60 02 	sll  %i5, 2, %g4
     7c8:	c4 06 80 01 	ld  [ %i2 + %g1 ], %g2
     7cc:	c6 06 00 01 	ld  [ %i0 + %g1 ], %g3
     7d0:	84 5e 40 02 	smul  %i1, %g2, %g2
     7d4:	84 00 c0 02 	add  %g3, %g2, %g2
     7d8:	c4 26 00 01 	st  %g2, [ %i0 + %g1 ]
     7dc:	82 00 60 04 	add  %g1, 4, %g1
     7e0:	80 a0 40 04 	cmp  %g1, %g4
     7e4:	32 bf ff fa 	bne,a   7cc <u32axpyf+0x44>
     7e8:	c4 06 80 01 	ld  [ %i2 + %g1 ], %g2
     7ec:	82 07 60 03 	add  %i5, 3, %g1
     7f0:	80 a3 c0 01 	cmp  %o7, %g1
     7f4:	04 80 00 24 	ble  884 <u32axpyf+0xfc>
     7f8:	84 07 60 01 	add  %i5, 1, %g2
     7fc:	b6 06 20 14 	add  %i0, 0x14, %i3
     800:	85 28 a0 02 	sll  %g2, 2, %g2
     804:	9e 03 ff fc 	add  %o7, -4, %o7
     808:	82 06 00 02 	add  %i0, %g2, %g1
     80c:	9e 23 c0 1d 	sub  %o7, %i5, %o7
     810:	b4 06 80 02 	add  %i2, %g2, %i2
     814:	9e 0b ff fc 	and  %o7, -4, %o7
     818:	ba 07 40 0f 	add  %i5, %o7, %i5
     81c:	bb 2f 60 02 	sll  %i5, 2, %i5
     820:	b6 06 c0 1d 	add  %i3, %i5, %i3
     824:	c4 06 bf fc 	ld  [ %i2 + -4 ], %g2
     828:	f8 00 7f fc 	ld  [ %g1 + -4 ], %i4
     82c:	84 5e 40 02 	smul  %i1, %g2, %g2
     830:	84 07 00 02 	add  %i4, %g2, %g2
     834:	fa 00 40 00 	ld  [ %g1 ], %i5
     838:	c4 20 7f fc 	st  %g2, [ %g1 + -4 ]
     83c:	c4 06 80 00 	ld  [ %i2 ], %g2
     840:	84 5e 40 02 	smul  %i1, %g2, %g2
     844:	84 07 40 02 	add  %i5, %g2, %g2
     848:	c8 00 60 04 	ld  [ %g1 + 4 ], %g4
     84c:	c4 20 40 00 	st  %g2, [ %g1 ]
     850:	c4 06 a0 04 	ld  [ %i2 + 4 ], %g2
     854:	84 5e 40 02 	smul  %i1, %g2, %g2
     858:	84 01 00 02 	add  %g4, %g2, %g2
     85c:	c6 00 60 08 	ld  [ %g1 + 8 ], %g3
     860:	c4 20 60 04 	st  %g2, [ %g1 + 4 ]
     864:	c4 06 a0 08 	ld  [ %i2 + 8 ], %g2
     868:	84 5e 40 02 	smul  %i1, %g2, %g2
     86c:	84 00 c0 02 	add  %g3, %g2, %g2
     870:	c4 20 60 08 	st  %g2, [ %g1 + 8 ]
     874:	82 00 60 10 	add  %g1, 0x10, %g1
     878:	80 a0 40 1b 	cmp  %g1, %i3
     87c:	12 bf ff ea 	bne  824 <u32axpyf+0x9c>
     880:	b4 06 a0 10 	add  %i2, 0x10, %i2
     884:	81 c7 e0 08 	ret 
     888:	81 e8 00 00 	restore 

0000088c <window_overflow_trap_handler>:
     88c:	a7 50 00 00 	rd  %wim, %l3
     890:	a9 2c e0 07 	sll  %l3, 7, %l4
     894:	a7 34 e0 01 	srl  %l3, 1, %l3
     898:	a6 14 c0 14 	or  %l3, %l4, %l3
     89c:	a6 0c e0 ff 	and  %l3, 0xff, %l3
     8a0:	81 90 00 00 	mov  %g0, %wim
     8a4:	01 00 00 00 	nop 
     8a8:	01 00 00 00 	nop 
     8ac:	01 00 00 00 	nop 
     8b0:	81 e0 00 00 	save 
     8b4:	e0 3b a0 00 	std  %l0, [ %sp ]
     8b8:	e4 3b a0 08 	std  %l2, [ %sp + 8 ]
     8bc:	e8 3b a0 10 	std  %l4, [ %sp + 0x10 ]
     8c0:	ec 3b a0 18 	std  %l6, [ %sp + 0x18 ]
     8c4:	f0 3b a0 20 	std  %i0, [ %sp + 0x20 ]
     8c8:	f4 3b a0 28 	std  %i2, [ %sp + 0x28 ]
     8cc:	f8 3b a0 30 	std  %i4, [ %sp + 0x30 ]
     8d0:	fc 3b a0 38 	std  %fp, [ %sp + 0x38 ]
     8d4:	81 e8 00 00 	restore 
     8d8:	81 90 00 13 	mov  %l3, %wim
     8dc:	01 00 00 00 	nop 
     8e0:	01 00 00 00 	nop 
     8e4:	01 00 00 00 	nop 
     8e8:	81 c4 40 00 	jmp  %l1
     8ec:	81 cc 80 00 	rett  %l2

000008f0 <window_underflow_trap_handler>:
     8f0:	a7 50 00 00 	rd  %wim, %l3
     8f4:	a9 34 e0 07 	srl  %l3, 7, %l4
     8f8:	a7 2c e0 01 	sll  %l3, 1, %l3
     8fc:	a6 14 c0 14 	or  %l3, %l4, %l3
     900:	a6 0c e0 ff 	and  %l3, 0xff, %l3
     904:	81 90 00 00 	mov  %g0, %wim
     908:	01 00 00 00 	nop 
     90c:	01 00 00 00 	nop 
     910:	01 00 00 00 	nop 
     914:	81 e8 00 00 	restore 
     918:	81 e8 00 00 	restore 
     91c:	e0 1b a0 00 	ldd  [ %sp ], %l0
     920:	e4 1b a0 08 	ldd  [ %sp + 8 ], %l2
     924:	e8 1b a0 10 	ldd  [ %sp + 0x10 ], %l4
     928:	ec 1b a0 18 	ldd  [ %sp + 0x18 ], %l6
     92c:	f0 1b a0 20 	ldd  [ %sp + 0x20 ], %i0
     930:	f4 1b a0 28 	ldd  [ %sp + 0x28 ], %i2
     934:	f8 1b a0 30 	ldd  [ %sp + 0x30 ], %i4
     938:	fc 1b a0 38 	ldd  [ %sp + 0x38 ], %fp
     93c:	81 e0 00 00 	save 
     940:	81 e0 00 00 	save 
     944:	81 90 00 13 	mov  %l3, %wim
     948:	01 00 00 00 	nop 
     94c:	01 00 00 00 	nop 
     950:	01 00 00 00 	nop 
     954:	81 c4 40 00 	jmp  %l1
     958:	81 cc 80 00 	rett  %l2
     95c:	00 00 00 00 	unimp  0
	...

00001000 <trap_table_base>:
    1000:	91 d0 20 00 	ta  0
    1004:	01 00 00 00 	nop 
    1008:	01 00 00 00 	nop 
    100c:	01 00 00 00 	nop 

00001010 <HW_trap_0x01>:
    1010:	91 d0 20 00 	ta  0
    1014:	01 00 00 00 	nop 
    1018:	01 00 00 00 	nop 
    101c:	01 00 00 00 	nop 

00001020 <HW_trap_0x02>:
    1020:	91 d0 20 00 	ta  0
    1024:	01 00 00 00 	nop 
    1028:	01 00 00 00 	nop 
    102c:	01 00 00 00 	nop 

00001030 <HW_trap_0x03>:
    1030:	91 d0 20 00 	ta  0
    1034:	01 00 00 00 	nop 
    1038:	01 00 00 00 	nop 
    103c:	01 00 00 00 	nop 

00001040 <HW_trap_0x04>:
    1040:	91 d0 20 00 	ta  0
    1044:	01 00 00 00 	nop 
    1048:	01 00 00 00 	nop 
    104c:	01 00 00 00 	nop 

00001050 <HW_trap_0x05>:
    1050:	10 bf fe 0f 	b  88c <window_overflow_trap_handler>
    1054:	01 00 00 00 	nop 
    1058:	01 00 00 00 	nop 
    105c:	01 00 00 00 	nop 

00001060 <HW_trap_0x06>:
    1060:	10 bf fe 24 	b  8f0 <window_underflow_trap_handler>
    1064:	01 00 00 00 	nop 
    1068:	01 00 00 00 	nop 
    106c:	01 00 00 00 	nop 

00001070 <HW_trap_0x07>:
    1070:	91 d0 20 00 	ta  0
    1074:	01 00 00 00 	nop 
    1078:	01 00 00 00 	nop 
    107c:	01 00 00 00 	nop 

00001080 <HW_trap_0x08>:
    1080:	91 d0 20 00 	ta  0
    1084:	01 00 00 00 	nop 
    1088:	01 00 00 00 	nop 
    108c:	01 00 00 00 	nop 

00001090 <HW_trap_0x09>:
    1090:	91 d0 20 00 	ta  0
    1094:	01 00 00 00 	nop 
    1098:	01 00 00 00 	nop 
    109c:	01 00 00 00 	nop 

000010a0 <HW_trap_0x0a>:
    10a0:	91 d0 20 00 	ta  0
    10a4:	01 00 00 00 	nop 
    10a8:	01 00 00 00 	nop 
    10ac:	01 00 00 00 	nop 

000010b0 <HW_trap_0x0b>:
    10b0:	91 d0 20 00 	ta  0
    10b4:	01 00 00 00 	nop 
    10b8:	01 00 00 00 	nop 
    10bc:	01 00 00 00 	nop 

000010c0 <HW_trap_0x0c>:
    10c0:	91 d0 20 00 	ta  0
    10c4:	01 00 00 00 	nop 
    10c8:	01 00 00 00 	nop 
    10cc:	01 00 00 00 	nop 

000010d0 <HW_trap_0x0d>:
    10d0:	91 d0 20 00 	ta  0
    10d4:	01 00 00 00 	nop 
    10d8:	01 00 00 00 	nop 
    10dc:	01 00 00 00 	nop 

000010e0 <HW_trap_0x0e>:
    10e0:	91 d0 20 00 	ta  0
    10e4:	01 00 00 00 	nop 
    10e8:	01 00 00 00 	nop 
    10ec:	01 00 00 00 	nop 

000010f0 <HW_trap_0x0f>:
    10f0:	91 d0 20 00 	ta  0
    10f4:	01 00 00 00 	nop 
    10f8:	01 00 00 00 	nop 
    10fc:	01 00 00 00 	nop 

00001100 <HW_trap_0x10>:
    1100:	91 d0 20 00 	ta  0
    1104:	01 00 00 00 	nop 
    1108:	01 00 00 00 	nop 
    110c:	01 00 00 00 	nop 

00001110 <HW_trap_0x11>:
    1110:	91 d0 20 00 	ta  0
    1114:	01 00 00 00 	nop 
    1118:	01 00 00 00 	nop 
    111c:	01 00 00 00 	nop 

00001120 <HW_trap_0x12>:
    1120:	91 d0 20 00 	ta  0
    1124:	01 00 00 00 	nop 
    1128:	01 00 00 00 	nop 
    112c:	01 00 00 00 	nop 

00001130 <HW_trap_0x13>:
    1130:	91 d0 20 00 	ta  0
    1134:	01 00 00 00 	nop 
    1138:	01 00 00 00 	nop 
    113c:	01 00 00 00 	nop 

00001140 <HW_trap_0x14>:
    1140:	91 d0 20 00 	ta  0
    1144:	01 00 00 00 	nop 
    1148:	01 00 00 00 	nop 
    114c:	01 00 00 00 	nop 

00001150 <HW_trap_0x15>:
    1150:	91 d0 20 00 	ta  0
    1154:	01 00 00 00 	nop 
    1158:	01 00 00 00 	nop 
    115c:	01 00 00 00 	nop 

00001160 <HW_trap_0x16>:
    1160:	91 d0 20 00 	ta  0
    1164:	01 00 00 00 	nop 
    1168:	01 00 00 00 	nop 
    116c:	01 00 00 00 	nop 

00001170 <HW_trap_0x17>:
    1170:	91 d0 20 00 	ta  0
    1174:	01 00 00 00 	nop 
    1178:	01 00 00 00 	nop 
    117c:	01 00 00 00 	nop 

00001180 <HW_trap_0x18>:
    1180:	91 d0 20 00 	ta  0
    1184:	01 00 00 00 	nop 
    1188:	01 00 00 00 	nop 
    118c:	01 00 00 00 	nop 

00001190 <HW_trap_0x19>:
    1190:	91 d0 20 00 	ta  0
    1194:	01 00 00 00 	nop 
    1198:	01 00 00 00 	nop 
    119c:	01 00 00 00 	nop 

000011a0 <HW_trap_0x1a>:
    11a0:	91 d0 20 00 	ta  0
    11a4:	01 00 00 00 	nop 
    11a8:	01 00 00 00 	nop 
    11ac:	01 00 00 00 	nop 

000011b0 <HW_trap_0x1b>:
    11b0:	91 d0 20 00 	ta  0
    11b4:	01 00 00 00 	nop 
    11b8:	01 00 00 00 	nop 
    11bc:	01 00 00 00 	nop 

000011c0 <HW_trap_0x1c>:
    11c0:	91 d0 20 00 	ta  0
    11c4:	01 00 00 00 	nop 
    11c8:	01 00 00 00 	nop 
    11cc:	01 00 00 00 	nop 

000011d0 <HW_trap_0x1d>:
    11d0:	91 d0 20 00 	ta  0
    11d4:	01 00 00 00 	nop 
    11d8:	01 00 00 00 	nop 
    11dc:	01 00 00 00 	nop 

000011e0 <HW_trap_0x1e>:
    11e0:	91 d0 20 00 	ta  0
    11e4:	01 00 00 00 	nop 
    11e8:	01 00 00 00 	nop 
    11ec:	01 00 00 00 	nop 

000011f0 <HW_trap_0x1f>:
    11f0:	91 d0 20 00 	ta  0
    11f4:	01 00 00 00 	nop 
    11f8:	01 00 00 00 	nop 
    11fc:	01 00 00 00 	nop 

00001200 <HW_trap_0x20>:
    1200:	91 d0 20 00 	ta  0
    1204:	01 00 00 00 	nop 
    1208:	01 00 00 00 	nop 
    120c:	01 00 00 00 	nop 

00001210 <HW_trap_0x21>:
    1210:	91 d0 20 00 	ta  0
    1214:	01 00 00 00 	nop 
    1218:	01 00 00 00 	nop 
    121c:	01 00 00 00 	nop 

00001220 <HW_trap_0x22>:
    1220:	91 d0 20 00 	ta  0
    1224:	01 00 00 00 	nop 
    1228:	01 00 00 00 	nop 
    122c:	01 00 00 00 	nop 

00001230 <HW_trap_0x23>:
    1230:	91 d0 20 00 	ta  0
    1234:	01 00 00 00 	nop 
    1238:	01 00 00 00 	nop 
    123c:	01 00 00 00 	nop 

00001240 <HW_trap_0x24>:
    1240:	91 d0 20 00 	ta  0
    1244:	01 00 00 00 	nop 
    1248:	01 00 00 00 	nop 
    124c:	01 00 00 00 	nop 

00001250 <HW_trap_0x25>:
    1250:	91 d0 20 00 	ta  0
    1254:	01 00 00 00 	nop 
    1258:	01 00 00 00 	nop 
    125c:	01 00 00 00 	nop 

00001260 <HW_trap_0x26>:
    1260:	91 d0 20 00 	ta  0
    1264:	01 00 00 00 	nop 
    1268:	01 00 00 00 	nop 
    126c:	01 00 00 00 	nop 

00001270 <HW_trap_0x27>:
    1270:	91 d0 20 00 	ta  0
    1274:	01 00 00 00 	nop 
    1278:	01 00 00 00 	nop 
    127c:	01 00 00 00 	nop 

00001280 <HW_trap_0x28>:
    1280:	91 d0 20 00 	ta  0
    1284:	01 00 00 00 	nop 
    1288:	01 00 00 00 	nop 
    128c:	01 00 00 00 	nop 

00001290 <HW_trap_0x29>:
    1290:	91 d0 20 00 	ta  0
    1294:	01 00 00 00 	nop 
    1298:	01 00 00 00 	nop 
    129c:	01 00 00 00 	nop 

000012a0 <HW_trap_0x2a>:
    12a0:	91 d0 20 00 	ta  0
    12a4:	01 00 00 00 	nop 
    12a8:	01 00 00 00 	nop 
    12ac:	01 00 00 00 	nop 

000012b0 <HW_trap_0x2b>:
    12b0:	91 d0 20 00 	ta  0
    12b4:	01 00 00 00 	nop 
    12b8:	01 00 00 00 	nop 
    12bc:	01 00 00 00 	nop 

000012c0 <HW_trap_0x2c>:
    12c0:	91 d0 20 00 	ta  0
    12c4:	01 00 00 00 	nop 
    12c8:	01 00 00 00 	nop 
    12cc:	01 00 00 00 	nop 

000012d0 <HW_trap_0x2d>:
    12d0:	91 d0 20 00 	ta  0
    12d4:	01 00 00 00 	nop 
    12d8:	01 00 00 00 	nop 
    12dc:	01 00 00 00 	nop 

000012e0 <HW_trap_0x2e>:
    12e0:	91 d0 20 00 	ta  0
    12e4:	01 00 00 00 	nop 
    12e8:	01 00 00 00 	nop 
    12ec:	01 00 00 00 	nop 

000012f0 <HW_trap_0x2f>:
    12f0:	91 d0 20 00 	ta  0
    12f4:	01 00 00 00 	nop 
    12f8:	01 00 00 00 	nop 
    12fc:	01 00 00 00 	nop 

00001300 <HW_trap_0x30>:
    1300:	91 d0 20 00 	ta  0
    1304:	01 00 00 00 	nop 
    1308:	01 00 00 00 	nop 
    130c:	01 00 00 00 	nop 

00001310 <HW_trap_0x31>:
    1310:	91 d0 20 00 	ta  0
    1314:	01 00 00 00 	nop 
    1318:	01 00 00 00 	nop 
    131c:	01 00 00 00 	nop 

00001320 <HW_trap_0x32>:
    1320:	91 d0 20 00 	ta  0
    1324:	01 00 00 00 	nop 
    1328:	01 00 00 00 	nop 
    132c:	01 00 00 00 	nop 

00001330 <HW_trap_0x33>:
    1330:	91 d0 20 00 	ta  0
    1334:	01 00 00 00 	nop 
    1338:	01 00 00 00 	nop 
    133c:	01 00 00 00 	nop 

00001340 <HW_trap_0x34>:
    1340:	91 d0 20 00 	ta  0
    1344:	01 00 00 00 	nop 
    1348:	01 00 00 00 	nop 
    134c:	01 00 00 00 	nop 

00001350 <HW_trap_0x35>:
    1350:	91 d0 20 00 	ta  0
    1354:	01 00 00 00 	nop 
    1358:	01 00 00 00 	nop 
    135c:	01 00 00 00 	nop 

00001360 <HW_trap_0x36>:
    1360:	91 d0 20 00 	ta  0
    1364:	01 00 00 00 	nop 
    1368:	01 00 00 00 	nop 
    136c:	01 00 00 00 	nop 

00001370 <HW_trap_0x37>:
    1370:	91 d0 20 00 	ta  0
    1374:	01 00 00 00 	nop 
    1378:	01 00 00 00 	nop 
    137c:	01 00 00 00 	nop 

00001380 <HW_trap_0x38>:
    1380:	91 d0 20 00 	ta  0
    1384:	01 00 00 00 	nop 
    1388:	01 00 00 00 	nop 
    138c:	01 00 00 00 	nop 

00001390 <HW_trap_0x39>:
    1390:	91 d0 20 00 	ta  0
    1394:	01 00 00 00 	nop 
    1398:	01 00 00 00 	nop 
    139c:	01 00 00 00 	nop 

000013a0 <HW_trap_0x3a>:
    13a0:	91 d0 20 00 	ta  0
    13a4:	01 00 00 00 	nop 
    13a8:	01 00 00 00 	nop 
    13ac:	01 00 00 00 	nop 

000013b0 <HW_trap_0x3b>:
    13b0:	91 d0 20 00 	ta  0
    13b4:	01 00 00 00 	nop 
    13b8:	01 00 00 00 	nop 
    13bc:	01 00 00 00 	nop 

000013c0 <HW_trap_0x3c>:
    13c0:	91 d0 20 00 	ta  0
    13c4:	01 00 00 00 	nop 
    13c8:	01 00 00 00 	nop 
    13cc:	01 00 00 00 	nop 

000013d0 <HW_trap_0x3d>:
    13d0:	91 d0 20 00 	ta  0
    13d4:	01 00 00 00 	nop 
    13d8:	01 00 00 00 	nop 
    13dc:	01 00 00 00 	nop 

000013e0 <HW_trap_0x3e>:
    13e0:	91 d0 20 00 	ta  0
    13e4:	01 00 00 00 	nop 
    13e8:	01 00 00 00 	nop 
    13ec:	01 00 00 00 	nop 

000013f0 <HW_trap_0x3f>:
    13f0:	91 d0 20 00 	ta  0
    13f4:	01 00 00 00 	nop 
    13f8:	01 00 00 00 	nop 
    13fc:	01 00 00 00 	nop 

00001400 <HW_trap_0x40>:
    1400:	91 d0 20 00 	ta  0
    1404:	01 00 00 00 	nop 
    1408:	01 00 00 00 	nop 
    140c:	01 00 00 00 	nop 

00001410 <HW_trap_0x41>:
    1410:	91 d0 20 00 	ta  0
    1414:	01 00 00 00 	nop 
    1418:	01 00 00 00 	nop 
    141c:	01 00 00 00 	nop 

00001420 <HW_trap_0x42>:
    1420:	91 d0 20 00 	ta  0
    1424:	01 00 00 00 	nop 
    1428:	01 00 00 00 	nop 
    142c:	01 00 00 00 	nop 

00001430 <HW_trap_0x43>:
    1430:	91 d0 20 00 	ta  0
    1434:	01 00 00 00 	nop 
    1438:	01 00 00 00 	nop 
    143c:	01 00 00 00 	nop 

00001440 <HW_trap_0x44>:
    1440:	91 d0 20 00 	ta  0
    1444:	01 00 00 00 	nop 
    1448:	01 00 00 00 	nop 
    144c:	01 00 00 00 	nop 

00001450 <HW_trap_0x45>:
    1450:	91 d0 20 00 	ta  0
    1454:	01 00 00 00 	nop 
    1458:	01 00 00 00 	nop 
    145c:	01 00 00 00 	nop 

00001460 <HW_trap_0x46>:
    1460:	91 d0 20 00 	ta  0
    1464:	01 00 00 00 	nop 
    1468:	01 00 00 00 	nop 
    146c:	01 00 00 00 	nop 

00001470 <HW_trap_0x47>:
    1470:	91 d0 20 00 	ta  0
    1474:	01 00 00 00 	nop 
    1478:	01 00 00 00 	nop 
    147c:	01 00 00 00 	nop 

00001480 <HW_trap_0x48>:
    1480:	91 d0 20 00 	ta  0
    1484:	01 00 00 00 	nop 
    1488:	01 00 00 00 	nop 
    148c:	01 00 00 00 	nop 

00001490 <HW_trap_0x49>:
    1490:	91 d0 20 00 	ta  0
    1494:	01 00 00 00 	nop 
    1498:	01 00 00 00 	nop 
    149c:	01 00 00 00 	nop 

000014a0 <HW_trap_0x4a>:
    14a0:	91 d0 20 00 	ta  0
    14a4:	01 00 00 00 	nop 
    14a8:	01 00 00 00 	nop 
    14ac:	01 00 00 00 	nop 

000014b0 <HW_trap_0x4b>:
    14b0:	91 d0 20 00 	ta  0
    14b4:	01 00 00 00 	nop 
    14b8:	01 00 00 00 	nop 
    14bc:	01 00 00 00 	nop 

000014c0 <HW_trap_0x4c>:
    14c0:	91 d0 20 00 	ta  0
    14c4:	01 00 00 00 	nop 
    14c8:	01 00 00 00 	nop 
    14cc:	01 00 00 00 	nop 

000014d0 <HW_trap_0x4d>:
    14d0:	91 d0 20 00 	ta  0
    14d4:	01 00 00 00 	nop 
    14d8:	01 00 00 00 	nop 
    14dc:	01 00 00 00 	nop 

000014e0 <HW_trap_0x4e>:
    14e0:	91 d0 20 00 	ta  0
    14e4:	01 00 00 00 	nop 
    14e8:	01 00 00 00 	nop 
    14ec:	01 00 00 00 	nop 

000014f0 <HW_trap_0x4f>:
    14f0:	91 d0 20 00 	ta  0
    14f4:	01 00 00 00 	nop 
    14f8:	01 00 00 00 	nop 
    14fc:	01 00 00 00 	nop 

00001500 <HW_trap_0x50>:
    1500:	91 d0 20 00 	ta  0
    1504:	01 00 00 00 	nop 
    1508:	01 00 00 00 	nop 
    150c:	01 00 00 00 	nop 

00001510 <HW_trap_0x51>:
    1510:	91 d0 20 00 	ta  0
    1514:	01 00 00 00 	nop 
    1518:	01 00 00 00 	nop 
    151c:	01 00 00 00 	nop 

00001520 <HW_trap_0x52>:
    1520:	91 d0 20 00 	ta  0
    1524:	01 00 00 00 	nop 
    1528:	01 00 00 00 	nop 
    152c:	01 00 00 00 	nop 

00001530 <HW_trap_0x53>:
    1530:	91 d0 20 00 	ta  0
    1534:	01 00 00 00 	nop 
    1538:	01 00 00 00 	nop 
    153c:	01 00 00 00 	nop 

00001540 <HW_trap_0x54>:
    1540:	91 d0 20 00 	ta  0
    1544:	01 00 00 00 	nop 
    1548:	01 00 00 00 	nop 
    154c:	01 00 00 00 	nop 

00001550 <HW_trap_0x55>:
    1550:	91 d0 20 00 	ta  0
    1554:	01 00 00 00 	nop 
    1558:	01 00 00 00 	nop 
    155c:	01 00 00 00 	nop 

00001560 <HW_trap_0x56>:
    1560:	91 d0 20 00 	ta  0
    1564:	01 00 00 00 	nop 
    1568:	01 00 00 00 	nop 
    156c:	01 00 00 00 	nop 

00001570 <HW_trap_0x57>:
    1570:	91 d0 20 00 	ta  0
    1574:	01 00 00 00 	nop 
    1578:	01 00 00 00 	nop 
    157c:	01 00 00 00 	nop 

00001580 <HW_trap_0x58>:
    1580:	91 d0 20 00 	ta  0
    1584:	01 00 00 00 	nop 
    1588:	01 00 00 00 	nop 
    158c:	01 00 00 00 	nop 

00001590 <HW_trap_0x59>:
    1590:	91 d0 20 00 	ta  0
    1594:	01 00 00 00 	nop 
    1598:	01 00 00 00 	nop 
    159c:	01 00 00 00 	nop 

000015a0 <HW_trap_0x5a>:
    15a0:	91 d0 20 00 	ta  0
    15a4:	01 00 00 00 	nop 
    15a8:	01 00 00 00 	nop 
    15ac:	01 00 00 00 	nop 

000015b0 <HW_trap_0x5b>:
    15b0:	91 d0 20 00 	ta  0
    15b4:	01 00 00 00 	nop 
    15b8:	01 00 00 00 	nop 
    15bc:	01 00 00 00 	nop 

000015c0 <HW_trap_0x5c>:
    15c0:	91 d0 20 00 	ta  0
    15c4:	01 00 00 00 	nop 
    15c8:	01 00 00 00 	nop 
    15cc:	01 00 00 00 	nop 

000015d0 <HW_trap_0x5d>:
    15d0:	91 d0 20 00 	ta  0
    15d4:	01 00 00 00 	nop 
    15d8:	01 00 00 00 	nop 
    15dc:	01 00 00 00 	nop 

000015e0 <HW_trap_0x5e>:
    15e0:	91 d0 20 00 	ta  0
    15e4:	01 00 00 00 	nop 
    15e8:	01 00 00 00 	nop 
    15ec:	01 00 00 00 	nop 

000015f0 <HW_trap_0x5f>:
    15f0:	91 d0 20 00 	ta  0
    15f4:	01 00 00 00 	nop 
    15f8:	01 00 00 00 	nop 
    15fc:	01 00 00 00 	nop 

00001600 <HW_trap_0x60>:
    1600:	91 d0 20 00 	ta  0
    1604:	01 00 00 00 	nop 
    1608:	01 00 00 00 	nop 
    160c:	01 00 00 00 	nop 

00001610 <HW_trap_0x61>:
    1610:	91 d0 20 00 	ta  0
    1614:	01 00 00 00 	nop 
    1618:	01 00 00 00 	nop 
    161c:	01 00 00 00 	nop 

00001620 <HW_trap_0x62>:
    1620:	91 d0 20 00 	ta  0
    1624:	01 00 00 00 	nop 
    1628:	01 00 00 00 	nop 
    162c:	01 00 00 00 	nop 

00001630 <HW_trap_0x63>:
    1630:	91 d0 20 00 	ta  0
    1634:	01 00 00 00 	nop 
    1638:	01 00 00 00 	nop 
    163c:	01 00 00 00 	nop 

00001640 <HW_trap_0x64>:
    1640:	91 d0 20 00 	ta  0
    1644:	01 00 00 00 	nop 
    1648:	01 00 00 00 	nop 
    164c:	01 00 00 00 	nop 

00001650 <HW_trap_0x65>:
    1650:	91 d0 20 00 	ta  0
    1654:	01 00 00 00 	nop 
    1658:	01 00 00 00 	nop 
    165c:	01 00 00 00 	nop 

00001660 <HW_trap_0x66>:
    1660:	91 d0 20 00 	ta  0
    1664:	01 00 00 00 	nop 
    1668:	01 00 00 00 	nop 
    166c:	01 00 00 00 	nop 

00001670 <HW_trap_0x67>:
    1670:	91 d0 20 00 	ta  0
    1674:	01 00 00 00 	nop 
    1678:	01 00 00 00 	nop 
    167c:	01 00 00 00 	nop 

00001680 <HW_trap_0x68>:
    1680:	91 d0 20 00 	ta  0
    1684:	01 00 00 00 	nop 
    1688:	01 00 00 00 	nop 
    168c:	01 00 00 00 	nop 

00001690 <HW_trap_0x69>:
    1690:	91 d0 20 00 	ta  0
    1694:	01 00 00 00 	nop 
    1698:	01 00 00 00 	nop 
    169c:	01 00 00 00 	nop 

000016a0 <HW_trap_0x6a>:
    16a0:	91 d0 20 00 	ta  0
    16a4:	01 00 00 00 	nop 
    16a8:	01 00 00 00 	nop 
    16ac:	01 00 00 00 	nop 

000016b0 <HW_trap_0x6b>:
    16b0:	91 d0 20 00 	ta  0
    16b4:	01 00 00 00 	nop 
    16b8:	01 00 00 00 	nop 
    16bc:	01 00 00 00 	nop 

000016c0 <HW_trap_0x6c>:
    16c0:	91 d0 20 00 	ta  0
    16c4:	01 00 00 00 	nop 
    16c8:	01 00 00 00 	nop 
    16cc:	01 00 00 00 	nop 

000016d0 <HW_trap_0x6d>:
    16d0:	91 d0 20 00 	ta  0
    16d4:	01 00 00 00 	nop 
    16d8:	01 00 00 00 	nop 
    16dc:	01 00 00 00 	nop 

000016e0 <HW_trap_0x6e>:
    16e0:	91 d0 20 00 	ta  0
    16e4:	01 00 00 00 	nop 
    16e8:	01 00 00 00 	nop 
    16ec:	01 00 00 00 	nop 

000016f0 <HW_trap_0x6f>:
    16f0:	91 d0 20 00 	ta  0
    16f4:	01 00 00 00 	nop 
    16f8:	01 00 00 00 	nop 
    16fc:	01 00 00 00 	nop 

00001700 <HW_trap_0x70>:
    1700:	91 d0 20 00 	ta  0
    1704:	01 00 00 00 	nop 
    1708:	01 00 00 00 	nop 
    170c:	01 00 00 00 	nop 

00001710 <HW_trap_0x71>:
    1710:	91 d0 20 00 	ta  0
    1714:	01 00 00 00 	nop 
    1718:	01 00 00 00 	nop 
    171c:	01 00 00 00 	nop 

00001720 <HW_trap_0x72>:
    1720:	91 d0 20 00 	ta  0
    1724:	01 00 00 00 	nop 
    1728:	01 00 00 00 	nop 
    172c:	01 00 00 00 	nop 

00001730 <HW_trap_0x73>:
    1730:	91 d0 20 00 	ta  0
    1734:	01 00 00 00 	nop 
    1738:	01 00 00 00 	nop 
    173c:	01 00 00 00 	nop 

00001740 <HW_trap_0x74>:
    1740:	91 d0 20 00 	ta  0
    1744:	01 00 00 00 	nop 
    1748:	01 00 00 00 	nop 
    174c:	01 00 00 00 	nop 

00001750 <HW_trap_0x75>:
    1750:	91 d0 20 00 	ta  0
    1754:	01 00 00 00 	nop 
    1758:	01 00 00 00 	nop 
    175c:	01 00 00 00 	nop 

00001760 <HW_trap_0x76>:
    1760:	91 d0 20 00 	ta  0
    1764:	01 00 00 00 	nop 
    1768:	01 00 00 00 	nop 
    176c:	01 00 00 00 	nop 

00001770 <HW_trap_0x77>:
    1770:	91 d0 20 00 	ta  0
    1774:	01 00 00 00 	nop 
    1778:	01 00 00 00 	nop 
    177c:	01 00 00 00 	nop 

00001780 <HW_trap_0x78>:
    1780:	91 d0 20 00 	ta  0
    1784:	01 00 00 00 	nop 
    1788:	01 00 00 00 	nop 
    178c:	01 00 00 00 	nop 

00001790 <HW_trap_0x79>:
    1790:	91 d0 20 00 	ta  0
    1794:	01 00 00 00 	nop 
    1798:	01 00 00 00 	nop 
    179c:	01 00 00 00 	nop 

000017a0 <HW_trap_0x7a>:
    17a0:	91 d0 20 00 	ta  0
    17a4:	01 00 00 00 	nop 
    17a8:	01 00 00 00 	nop 
    17ac:	01 00 00 00 	nop 

000017b0 <HW_trap_0x7b>:
    17b0:	91 d0 20 00 	ta  0
    17b4:	01 00 00 00 	nop 
    17b8:	01 00 00 00 	nop 
    17bc:	01 00 00 00 	nop 

000017c0 <HW_trap_0x7c>:
    17c0:	91 d0 20 00 	ta  0
    17c4:	01 00 00 00 	nop 
    17c8:	01 00 00 00 	nop 
    17cc:	01 00 00 00 	nop 

000017d0 <HW_trap_0x7d>:
    17d0:	91 d0 20 00 	ta  0
    17d4:	01 00 00 00 	nop 
    17d8:	01 00 00 00 	nop 
    17dc:	01 00 00 00 	nop 

000017e0 <HW_trap_0x7e>:
    17e0:	91 d0 20 00 	ta  0
    17e4:	01 00 00 00 	nop 
    17e8:	01 00 00 00 	nop 
    17ec:	01 00 00 00 	nop 

000017f0 <HW_trap_0x7f>:
    17f0:	91 d0 20 00 	ta  0
    17f4:	01 00 00 00 	nop 
    17f8:	01 00 00 00 	nop 
    17fc:	01 00 00 00 	nop 

00001800 <SW_trap_0x80>:
    1800:	91 d0 20 00 	ta  0
    1804:	01 00 00 00 	nop 
    1808:	01 00 00 00 	nop 
    180c:	01 00 00 00 	nop 

00001810 <SW_trap_0x81>:
    1810:	91 d0 20 00 	ta  0
    1814:	01 00 00 00 	nop 
    1818:	01 00 00 00 	nop 
    181c:	01 00 00 00 	nop 

00001820 <SW_trap_0x82>:
    1820:	91 d0 20 00 	ta  0
    1824:	01 00 00 00 	nop 
    1828:	01 00 00 00 	nop 
    182c:	01 00 00 00 	nop 

00001830 <SW_trap_0x83>:
    1830:	91 d0 20 00 	ta  0
    1834:	01 00 00 00 	nop 
    1838:	01 00 00 00 	nop 
    183c:	01 00 00 00 	nop 

00001840 <SW_trap_0x84>:
    1840:	91 d0 20 00 	ta  0
    1844:	01 00 00 00 	nop 
    1848:	01 00 00 00 	nop 
    184c:	01 00 00 00 	nop 

00001850 <SW_trap_0x85>:
    1850:	91 d0 20 00 	ta  0
    1854:	01 00 00 00 	nop 
    1858:	01 00 00 00 	nop 
    185c:	01 00 00 00 	nop 

00001860 <SW_trap_0x86>:
    1860:	91 d0 20 00 	ta  0
    1864:	01 00 00 00 	nop 
    1868:	01 00 00 00 	nop 
    186c:	01 00 00 00 	nop 

00001870 <SW_trap_0x87>:
    1870:	91 d0 20 00 	ta  0
    1874:	01 00 00 00 	nop 
    1878:	01 00 00 00 	nop 
    187c:	01 00 00 00 	nop 

00001880 <SW_trap_0x88>:
    1880:	91 d0 20 00 	ta  0
    1884:	01 00 00 00 	nop 
    1888:	01 00 00 00 	nop 
    188c:	01 00 00 00 	nop 

00001890 <SW_trap_0x89>:
    1890:	91 d0 20 00 	ta  0
    1894:	01 00 00 00 	nop 
    1898:	01 00 00 00 	nop 
    189c:	01 00 00 00 	nop 

000018a0 <SW_trap_0x8a>:
    18a0:	91 d0 20 00 	ta  0
    18a4:	01 00 00 00 	nop 
    18a8:	01 00 00 00 	nop 
    18ac:	01 00 00 00 	nop 

000018b0 <SW_trap_0x8b>:
    18b0:	91 d0 20 00 	ta  0
    18b4:	01 00 00 00 	nop 
    18b8:	01 00 00 00 	nop 
    18bc:	01 00 00 00 	nop 

000018c0 <SW_trap_0x8c>:
    18c0:	91 d0 20 00 	ta  0
    18c4:	01 00 00 00 	nop 
    18c8:	01 00 00 00 	nop 
    18cc:	01 00 00 00 	nop 

000018d0 <SW_trap_0x8d>:
    18d0:	91 d0 20 00 	ta  0
    18d4:	01 00 00 00 	nop 
    18d8:	01 00 00 00 	nop 
    18dc:	01 00 00 00 	nop 

000018e0 <SW_trap_0x8e>:
    18e0:	91 d0 20 00 	ta  0
    18e4:	01 00 00 00 	nop 
    18e8:	01 00 00 00 	nop 
    18ec:	01 00 00 00 	nop 

000018f0 <SW_trap_0x8f>:
    18f0:	91 d0 20 00 	ta  0
    18f4:	01 00 00 00 	nop 
    18f8:	01 00 00 00 	nop 
    18fc:	01 00 00 00 	nop 

00001900 <SW_trap_0x90>:
    1900:	91 d0 20 00 	ta  0
    1904:	01 00 00 00 	nop 
    1908:	01 00 00 00 	nop 
    190c:	01 00 00 00 	nop 

00001910 <SW_trap_0x91>:
    1910:	91 d0 20 00 	ta  0
    1914:	01 00 00 00 	nop 
    1918:	01 00 00 00 	nop 
    191c:	01 00 00 00 	nop 

00001920 <SW_trap_0x92>:
    1920:	91 d0 20 00 	ta  0
    1924:	01 00 00 00 	nop 
    1928:	01 00 00 00 	nop 
    192c:	01 00 00 00 	nop 

00001930 <SW_trap_0x93>:
    1930:	91 d0 20 00 	ta  0
    1934:	01 00 00 00 	nop 
    1938:	01 00 00 00 	nop 
    193c:	01 00 00 00 	nop 

00001940 <SW_trap_0x94>:
    1940:	91 d0 20 00 	ta  0
    1944:	01 00 00 00 	nop 
    1948:	01 00 00 00 	nop 
    194c:	01 00 00 00 	nop 

00001950 <SW_trap_0x95>:
    1950:	91 d0 20 00 	ta  0
    1954:	01 00 00 00 	nop 
    1958:	01 00 00 00 	nop 
    195c:	01 00 00 00 	nop 

00001960 <SW_trap_0x96>:
    1960:	91 d0 20 00 	ta  0
    1964:	01 00 00 00 	nop 
    1968:	01 00 00 00 	nop 
    196c:	01 00 00 00 	nop 

00001970 <SW_trap_0x97>:
    1970:	91 d0 20 00 	ta  0
    1974:	01 00 00 00 	nop 
    1978:	01 00 00 00 	nop 
    197c:	01 00 00 00 	nop 

00001980 <SW_trap_0x98>:
    1980:	91 d0 20 00 	ta  0
    1984:	01 00 00 00 	nop 
    1988:	01 00 00 00 	nop 
    198c:	01 00 00 00 	nop 

00001990 <SW_trap_0x99>:
    1990:	91 d0 20 00 	ta  0
    1994:	01 00 00 00 	nop 
    1998:	01 00 00 00 	nop 
    199c:	01 00 00 00 	nop 

000019a0 <SW_trap_0x9a>:
    19a0:	91 d0 20 00 	ta  0
    19a4:	01 00 00 00 	nop 
    19a8:	01 00 00 00 	nop 
    19ac:	01 00 00 00 	nop 

000019b0 <SW_trap_0x9b>:
    19b0:	91 d0 20 00 	ta  0
    19b4:	01 00 00 00 	nop 
    19b8:	01 00 00 00 	nop 
    19bc:	01 00 00 00 	nop 

000019c0 <SW_trap_0x9c>:
    19c0:	91 d0 20 00 	ta  0
    19c4:	01 00 00 00 	nop 
    19c8:	01 00 00 00 	nop 
    19cc:	01 00 00 00 	nop 

000019d0 <SW_trap_0x9d>:
    19d0:	91 d0 20 00 	ta  0
    19d4:	01 00 00 00 	nop 
    19d8:	01 00 00 00 	nop 
    19dc:	01 00 00 00 	nop 

000019e0 <SW_trap_0x9e>:
    19e0:	91 d0 20 00 	ta  0
    19e4:	01 00 00 00 	nop 
    19e8:	01 00 00 00 	nop 
    19ec:	01 00 00 00 	nop 

000019f0 <SW_trap_0x9f>:
    19f0:	91 d0 20 00 	ta  0
    19f4:	01 00 00 00 	nop 
    19f8:	01 00 00 00 	nop 
    19fc:	01 00 00 00 	nop 

00001a00 <SW_trap_0xa0>:
    1a00:	91 d0 20 00 	ta  0
    1a04:	01 00 00 00 	nop 
    1a08:	01 00 00 00 	nop 
    1a0c:	01 00 00 00 	nop 

00001a10 <SW_trap_0xa1>:
    1a10:	91 d0 20 00 	ta  0
    1a14:	01 00 00 00 	nop 
    1a18:	01 00 00 00 	nop 
    1a1c:	01 00 00 00 	nop 

00001a20 <SW_trap_0xa2>:
    1a20:	91 d0 20 00 	ta  0
    1a24:	01 00 00 00 	nop 
    1a28:	01 00 00 00 	nop 
    1a2c:	01 00 00 00 	nop 

00001a30 <SW_trap_0xa3>:
    1a30:	91 d0 20 00 	ta  0
    1a34:	01 00 00 00 	nop 
    1a38:	01 00 00 00 	nop 
    1a3c:	01 00 00 00 	nop 

00001a40 <SW_trap_0xa4>:
    1a40:	91 d0 20 00 	ta  0
    1a44:	01 00 00 00 	nop 
    1a48:	01 00 00 00 	nop 
    1a4c:	01 00 00 00 	nop 

00001a50 <SW_trap_0xa5>:
    1a50:	91 d0 20 00 	ta  0
    1a54:	01 00 00 00 	nop 
    1a58:	01 00 00 00 	nop 
    1a5c:	01 00 00 00 	nop 

00001a60 <SW_trap_0xa6>:
    1a60:	91 d0 20 00 	ta  0
    1a64:	01 00 00 00 	nop 
    1a68:	01 00 00 00 	nop 
    1a6c:	01 00 00 00 	nop 

00001a70 <SW_trap_0xa7>:
    1a70:	91 d0 20 00 	ta  0
    1a74:	01 00 00 00 	nop 
    1a78:	01 00 00 00 	nop 
    1a7c:	01 00 00 00 	nop 

00001a80 <SW_trap_0xa8>:
    1a80:	91 d0 20 00 	ta  0
    1a84:	01 00 00 00 	nop 
    1a88:	01 00 00 00 	nop 
    1a8c:	01 00 00 00 	nop 

00001a90 <SW_trap_0xa9>:
    1a90:	91 d0 20 00 	ta  0
    1a94:	01 00 00 00 	nop 
    1a98:	01 00 00 00 	nop 
    1a9c:	01 00 00 00 	nop 

00001aa0 <SW_trap_0xaa>:
    1aa0:	91 d0 20 00 	ta  0
    1aa4:	01 00 00 00 	nop 
    1aa8:	01 00 00 00 	nop 
    1aac:	01 00 00 00 	nop 

00001ab0 <SW_trap_0xab>:
    1ab0:	91 d0 20 00 	ta  0
    1ab4:	01 00 00 00 	nop 
    1ab8:	01 00 00 00 	nop 
    1abc:	01 00 00 00 	nop 

00001ac0 <SW_trap_0xac>:
    1ac0:	91 d0 20 00 	ta  0
    1ac4:	01 00 00 00 	nop 
    1ac8:	01 00 00 00 	nop 
    1acc:	01 00 00 00 	nop 

00001ad0 <SW_trap_0xad>:
    1ad0:	91 d0 20 00 	ta  0
    1ad4:	01 00 00 00 	nop 
    1ad8:	01 00 00 00 	nop 
    1adc:	01 00 00 00 	nop 

00001ae0 <SW_trap_0xae>:
    1ae0:	91 d0 20 00 	ta  0
    1ae4:	01 00 00 00 	nop 
    1ae8:	01 00 00 00 	nop 
    1aec:	01 00 00 00 	nop 

00001af0 <SW_trap_0xaf>:
    1af0:	91 d0 20 00 	ta  0
    1af4:	01 00 00 00 	nop 
    1af8:	01 00 00 00 	nop 
    1afc:	01 00 00 00 	nop 

00001b00 <SW_trap_0xb0>:
    1b00:	91 d0 20 00 	ta  0
    1b04:	01 00 00 00 	nop 
    1b08:	01 00 00 00 	nop 
    1b0c:	01 00 00 00 	nop 

00001b10 <SW_trap_0xb1>:
    1b10:	91 d0 20 00 	ta  0
    1b14:	01 00 00 00 	nop 
    1b18:	01 00 00 00 	nop 
    1b1c:	01 00 00 00 	nop 

00001b20 <SW_trap_0xb2>:
    1b20:	91 d0 20 00 	ta  0
    1b24:	01 00 00 00 	nop 
    1b28:	01 00 00 00 	nop 
    1b2c:	01 00 00 00 	nop 

00001b30 <SW_trap_0xb3>:
    1b30:	91 d0 20 00 	ta  0
    1b34:	01 00 00 00 	nop 
    1b38:	01 00 00 00 	nop 
    1b3c:	01 00 00 00 	nop 

00001b40 <SW_trap_0xb4>:
    1b40:	91 d0 20 00 	ta  0
    1b44:	01 00 00 00 	nop 
    1b48:	01 00 00 00 	nop 
    1b4c:	01 00 00 00 	nop 

00001b50 <SW_trap_0xb5>:
    1b50:	91 d0 20 00 	ta  0
    1b54:	01 00 00 00 	nop 
    1b58:	01 00 00 00 	nop 
    1b5c:	01 00 00 00 	nop 

00001b60 <SW_trap_0xb6>:
    1b60:	91 d0 20 00 	ta  0
    1b64:	01 00 00 00 	nop 
    1b68:	01 00 00 00 	nop 
    1b6c:	01 00 00 00 	nop 

00001b70 <SW_trap_0xb7>:
    1b70:	91 d0 20 00 	ta  0
    1b74:	01 00 00 00 	nop 
    1b78:	01 00 00 00 	nop 
    1b7c:	01 00 00 00 	nop 

00001b80 <SW_trap_0xb8>:
    1b80:	91 d0 20 00 	ta  0
    1b84:	01 00 00 00 	nop 
    1b88:	01 00 00 00 	nop 
    1b8c:	01 00 00 00 	nop 

00001b90 <SW_trap_0xb9>:
    1b90:	91 d0 20 00 	ta  0
    1b94:	01 00 00 00 	nop 
    1b98:	01 00 00 00 	nop 
    1b9c:	01 00 00 00 	nop 

00001ba0 <SW_trap_0xba>:
    1ba0:	91 d0 20 00 	ta  0
    1ba4:	01 00 00 00 	nop 
    1ba8:	01 00 00 00 	nop 
    1bac:	01 00 00 00 	nop 

00001bb0 <SW_trap_0xbb>:
    1bb0:	91 d0 20 00 	ta  0
    1bb4:	01 00 00 00 	nop 
    1bb8:	01 00 00 00 	nop 
    1bbc:	01 00 00 00 	nop 

00001bc0 <SW_trap_0xbc>:
    1bc0:	91 d0 20 00 	ta  0
    1bc4:	01 00 00 00 	nop 
    1bc8:	01 00 00 00 	nop 
    1bcc:	01 00 00 00 	nop 

00001bd0 <SW_trap_0xbd>:
    1bd0:	91 d0 20 00 	ta  0
    1bd4:	01 00 00 00 	nop 
    1bd8:	01 00 00 00 	nop 
    1bdc:	01 00 00 00 	nop 

00001be0 <SW_trap_0xbe>:
    1be0:	91 d0 20 00 	ta  0
    1be4:	01 00 00 00 	nop 
    1be8:	01 00 00 00 	nop 
    1bec:	01 00 00 00 	nop 

00001bf0 <SW_trap_0xbf>:
    1bf0:	91 d0 20 00 	ta  0
    1bf4:	01 00 00 00 	nop 
    1bf8:	01 00 00 00 	nop 
    1bfc:	01 00 00 00 	nop 

00001c00 <SW_trap_0xc0>:
    1c00:	91 d0 20 00 	ta  0
    1c04:	01 00 00 00 	nop 
    1c08:	01 00 00 00 	nop 
    1c0c:	01 00 00 00 	nop 

00001c10 <SW_trap_0xc1>:
    1c10:	91 d0 20 00 	ta  0
    1c14:	01 00 00 00 	nop 
    1c18:	01 00 00 00 	nop 
    1c1c:	01 00 00 00 	nop 

00001c20 <SW_trap_0xc2>:
    1c20:	91 d0 20 00 	ta  0
    1c24:	01 00 00 00 	nop 
    1c28:	01 00 00 00 	nop 
    1c2c:	01 00 00 00 	nop 

00001c30 <SW_trap_0xc3>:
    1c30:	91 d0 20 00 	ta  0
    1c34:	01 00 00 00 	nop 
    1c38:	01 00 00 00 	nop 
    1c3c:	01 00 00 00 	nop 

00001c40 <SW_trap_0xc4>:
    1c40:	91 d0 20 00 	ta  0
    1c44:	01 00 00 00 	nop 
    1c48:	01 00 00 00 	nop 
    1c4c:	01 00 00 00 	nop 

00001c50 <SW_trap_0xc5>:
    1c50:	91 d0 20 00 	ta  0
    1c54:	01 00 00 00 	nop 
    1c58:	01 00 00 00 	nop 
    1c5c:	01 00 00 00 	nop 

00001c60 <SW_trap_0xc6>:
    1c60:	91 d0 20 00 	ta  0
    1c64:	01 00 00 00 	nop 
    1c68:	01 00 00 00 	nop 
    1c6c:	01 00 00 00 	nop 

00001c70 <SW_trap_0xc7>:
    1c70:	91 d0 20 00 	ta  0
    1c74:	01 00 00 00 	nop 
    1c78:	01 00 00 00 	nop 
    1c7c:	01 00 00 00 	nop 

00001c80 <SW_trap_0xc8>:
    1c80:	91 d0 20 00 	ta  0
    1c84:	01 00 00 00 	nop 
    1c88:	01 00 00 00 	nop 
    1c8c:	01 00 00 00 	nop 

00001c90 <SW_trap_0xc9>:
    1c90:	91 d0 20 00 	ta  0
    1c94:	01 00 00 00 	nop 
    1c98:	01 00 00 00 	nop 
    1c9c:	01 00 00 00 	nop 

00001ca0 <SW_trap_0xca>:
    1ca0:	91 d0 20 00 	ta  0
    1ca4:	01 00 00 00 	nop 
    1ca8:	01 00 00 00 	nop 
    1cac:	01 00 00 00 	nop 

00001cb0 <SW_trap_0xcb>:
    1cb0:	91 d0 20 00 	ta  0
    1cb4:	01 00 00 00 	nop 
    1cb8:	01 00 00 00 	nop 
    1cbc:	01 00 00 00 	nop 

00001cc0 <SW_trap_0xcc>:
    1cc0:	91 d0 20 00 	ta  0
    1cc4:	01 00 00 00 	nop 
    1cc8:	01 00 00 00 	nop 
    1ccc:	01 00 00 00 	nop 

00001cd0 <SW_trap_0xcd>:
    1cd0:	91 d0 20 00 	ta  0
    1cd4:	01 00 00 00 	nop 
    1cd8:	01 00 00 00 	nop 
    1cdc:	01 00 00 00 	nop 

00001ce0 <SW_trap_0xce>:
    1ce0:	91 d0 20 00 	ta  0
    1ce4:	01 00 00 00 	nop 
    1ce8:	01 00 00 00 	nop 
    1cec:	01 00 00 00 	nop 

00001cf0 <SW_trap_0xcf>:
    1cf0:	91 d0 20 00 	ta  0
    1cf4:	01 00 00 00 	nop 
    1cf8:	01 00 00 00 	nop 
    1cfc:	01 00 00 00 	nop 

00001d00 <SW_trap_0xd0>:
    1d00:	91 d0 20 00 	ta  0
    1d04:	01 00 00 00 	nop 
    1d08:	01 00 00 00 	nop 
    1d0c:	01 00 00 00 	nop 

00001d10 <SW_trap_0xd1>:
    1d10:	91 d0 20 00 	ta  0
    1d14:	01 00 00 00 	nop 
    1d18:	01 00 00 00 	nop 
    1d1c:	01 00 00 00 	nop 

00001d20 <SW_trap_0xd2>:
    1d20:	91 d0 20 00 	ta  0
    1d24:	01 00 00 00 	nop 
    1d28:	01 00 00 00 	nop 
    1d2c:	01 00 00 00 	nop 

00001d30 <SW_trap_0xd3>:
    1d30:	91 d0 20 00 	ta  0
    1d34:	01 00 00 00 	nop 
    1d38:	01 00 00 00 	nop 
    1d3c:	01 00 00 00 	nop 

00001d40 <SW_trap_0xd4>:
    1d40:	91 d0 20 00 	ta  0
    1d44:	01 00 00 00 	nop 
    1d48:	01 00 00 00 	nop 
    1d4c:	01 00 00 00 	nop 

00001d50 <SW_trap_0xd5>:
    1d50:	91 d0 20 00 	ta  0
    1d54:	01 00 00 00 	nop 
    1d58:	01 00 00 00 	nop 
    1d5c:	01 00 00 00 	nop 

00001d60 <SW_trap_0xd6>:
    1d60:	91 d0 20 00 	ta  0
    1d64:	01 00 00 00 	nop 
    1d68:	01 00 00 00 	nop 
    1d6c:	01 00 00 00 	nop 

00001d70 <SW_trap_0xd7>:
    1d70:	91 d0 20 00 	ta  0
    1d74:	01 00 00 00 	nop 
    1d78:	01 00 00 00 	nop 
    1d7c:	01 00 00 00 	nop 

00001d80 <SW_trap_0xd8>:
    1d80:	91 d0 20 00 	ta  0
    1d84:	01 00 00 00 	nop 
    1d88:	01 00 00 00 	nop 
    1d8c:	01 00 00 00 	nop 

00001d90 <SW_trap_0xd9>:
    1d90:	91 d0 20 00 	ta  0
    1d94:	01 00 00 00 	nop 
    1d98:	01 00 00 00 	nop 
    1d9c:	01 00 00 00 	nop 

00001da0 <SW_trap_0xda>:
    1da0:	91 d0 20 00 	ta  0
    1da4:	01 00 00 00 	nop 
    1da8:	01 00 00 00 	nop 
    1dac:	01 00 00 00 	nop 

00001db0 <SW_trap_0xdb>:
    1db0:	91 d0 20 00 	ta  0
    1db4:	01 00 00 00 	nop 
    1db8:	01 00 00 00 	nop 
    1dbc:	01 00 00 00 	nop 

00001dc0 <SW_trap_0xdc>:
    1dc0:	91 d0 20 00 	ta  0
    1dc4:	01 00 00 00 	nop 
    1dc8:	01 00 00 00 	nop 
    1dcc:	01 00 00 00 	nop 

00001dd0 <SW_trap_0xdd>:
    1dd0:	91 d0 20 00 	ta  0
    1dd4:	01 00 00 00 	nop 
    1dd8:	01 00 00 00 	nop 
    1ddc:	01 00 00 00 	nop 

00001de0 <SW_trap_0xde>:
    1de0:	91 d0 20 00 	ta  0
    1de4:	01 00 00 00 	nop 
    1de8:	01 00 00 00 	nop 
    1dec:	01 00 00 00 	nop 

00001df0 <SW_trap_0xdf>:
    1df0:	91 d0 20 00 	ta  0
    1df4:	01 00 00 00 	nop 
    1df8:	01 00 00 00 	nop 
    1dfc:	01 00 00 00 	nop 

00001e00 <SW_trap_0xe0>:
    1e00:	91 d0 20 00 	ta  0
    1e04:	01 00 00 00 	nop 
    1e08:	01 00 00 00 	nop 
    1e0c:	01 00 00 00 	nop 

00001e10 <SW_trap_0xe1>:
    1e10:	91 d0 20 00 	ta  0
    1e14:	01 00 00 00 	nop 
    1e18:	01 00 00 00 	nop 
    1e1c:	01 00 00 00 	nop 

00001e20 <SW_trap_0xe2>:
    1e20:	91 d0 20 00 	ta  0
    1e24:	01 00 00 00 	nop 
    1e28:	01 00 00 00 	nop 
    1e2c:	01 00 00 00 	nop 

00001e30 <SW_trap_0xe3>:
    1e30:	91 d0 20 00 	ta  0
    1e34:	01 00 00 00 	nop 
    1e38:	01 00 00 00 	nop 
    1e3c:	01 00 00 00 	nop 

00001e40 <SW_trap_0xe4>:
    1e40:	91 d0 20 00 	ta  0
    1e44:	01 00 00 00 	nop 
    1e48:	01 00 00 00 	nop 
    1e4c:	01 00 00 00 	nop 

00001e50 <SW_trap_0xe5>:
    1e50:	91 d0 20 00 	ta  0
    1e54:	01 00 00 00 	nop 
    1e58:	01 00 00 00 	nop 
    1e5c:	01 00 00 00 	nop 

00001e60 <SW_trap_0xe6>:
    1e60:	91 d0 20 00 	ta  0
    1e64:	01 00 00 00 	nop 
    1e68:	01 00 00 00 	nop 
    1e6c:	01 00 00 00 	nop 

00001e70 <SW_trap_0xe7>:
    1e70:	91 d0 20 00 	ta  0
    1e74:	01 00 00 00 	nop 
    1e78:	01 00 00 00 	nop 
    1e7c:	01 00 00 00 	nop 

00001e80 <SW_trap_0xe8>:
    1e80:	91 d0 20 00 	ta  0
    1e84:	01 00 00 00 	nop 
    1e88:	01 00 00 00 	nop 
    1e8c:	01 00 00 00 	nop 

00001e90 <SW_trap_0xe9>:
    1e90:	91 d0 20 00 	ta  0
    1e94:	01 00 00 00 	nop 
    1e98:	01 00 00 00 	nop 
    1e9c:	01 00 00 00 	nop 

00001ea0 <SW_trap_0xea>:
    1ea0:	91 d0 20 00 	ta  0
    1ea4:	01 00 00 00 	nop 
    1ea8:	01 00 00 00 	nop 
    1eac:	01 00 00 00 	nop 

00001eb0 <SW_trap_0xeb>:
    1eb0:	91 d0 20 00 	ta  0
    1eb4:	01 00 00 00 	nop 
    1eb8:	01 00 00 00 	nop 
    1ebc:	01 00 00 00 	nop 

00001ec0 <SW_trap_0xec>:
    1ec0:	91 d0 20 00 	ta  0
    1ec4:	01 00 00 00 	nop 
    1ec8:	01 00 00 00 	nop 
    1ecc:	01 00 00 00 	nop 

00001ed0 <SW_trap_0xed>:
    1ed0:	91 d0 20 00 	ta  0
    1ed4:	01 00 00 00 	nop 
    1ed8:	01 00 00 00 	nop 
    1edc:	01 00 00 00 	nop 

00001ee0 <SW_trap_0xee>:
    1ee0:	91 d0 20 00 	ta  0
    1ee4:	01 00 00 00 	nop 
    1ee8:	01 00 00 00 	nop 
    1eec:	01 00 00 00 	nop 

00001ef0 <SW_trap_0xef>:
    1ef0:	91 d0 20 00 	ta  0
    1ef4:	01 00 00 00 	nop 
    1ef8:	01 00 00 00 	nop 
    1efc:	01 00 00 00 	nop 

00001f00 <SW_trap_0xf0>:
    1f00:	91 d0 20 00 	ta  0
    1f04:	01 00 00 00 	nop 
    1f08:	01 00 00 00 	nop 
    1f0c:	01 00 00 00 	nop 

00001f10 <SW_trap_0xf1>:
    1f10:	91 d0 20 00 	ta  0
    1f14:	01 00 00 00 	nop 
    1f18:	01 00 00 00 	nop 
    1f1c:	01 00 00 00 	nop 

00001f20 <SW_trap_0xf2>:
    1f20:	91 d0 20 00 	ta  0
    1f24:	01 00 00 00 	nop 
    1f28:	01 00 00 00 	nop 
    1f2c:	01 00 00 00 	nop 

00001f30 <SW_trap_0xf3>:
    1f30:	91 d0 20 00 	ta  0
    1f34:	01 00 00 00 	nop 
    1f38:	01 00 00 00 	nop 
    1f3c:	01 00 00 00 	nop 

00001f40 <SW_trap_0xf4>:
    1f40:	91 d0 20 00 	ta  0
    1f44:	01 00 00 00 	nop 
    1f48:	01 00 00 00 	nop 
    1f4c:	01 00 00 00 	nop 

00001f50 <SW_trap_0xf5>:
    1f50:	91 d0 20 00 	ta  0
    1f54:	01 00 00 00 	nop 
    1f58:	01 00 00 00 	nop 
    1f5c:	01 00 00 00 	nop 

00001f60 <SW_trap_0xf6>:
    1f60:	91 d0 20 00 	ta  0
    1f64:	01 00 00 00 	nop 
    1f68:	01 00 00 00 	nop 
    1f6c:	01 00 00 00 	nop 

00001f70 <SW_trap_0xf7>:
    1f70:	91 d0 20 00 	ta  0
    1f74:	01 00 00 00 	nop 
    1f78:	01 00 00 00 	nop 
    1f7c:	01 00 00 00 	nop 

00001f80 <SW_trap_0xf8>:
    1f80:	91 d0 20 00 	ta  0
    1f84:	01 00 00 00 	nop 
    1f88:	01 00 00 00 	nop 
    1f8c:	01 00 00 00 	nop 

00001f90 <SW_trap_0xf9>:
    1f90:	91 d0 20 00 	ta  0
    1f94:	01 00 00 00 	nop 
    1f98:	01 00 00 00 	nop 
    1f9c:	01 00 00 00 	nop 

00001fa0 <SW_trap_0xfa>:
    1fa0:	91 d0 20 00 	ta  0
    1fa4:	01 00 00 00 	nop 
    1fa8:	01 00 00 00 	nop 
    1fac:	01 00 00 00 	nop 

00001fb0 <SW_trap_0xfb>:
    1fb0:	91 d0 20 00 	ta  0
    1fb4:	01 00 00 00 	nop 
    1fb8:	01 00 00 00 	nop 
    1fbc:	01 00 00 00 	nop 

00001fc0 <SW_trap_0xfc>:
    1fc0:	91 d0 20 00 	ta  0
    1fc4:	01 00 00 00 	nop 
    1fc8:	01 00 00 00 	nop 
    1fcc:	01 00 00 00 	nop 

00001fd0 <SW_trap_0xfd>:
    1fd0:	91 d0 20 00 	ta  0
    1fd4:	01 00 00 00 	nop 
    1fd8:	01 00 00 00 	nop 
    1fdc:	01 00 00 00 	nop 

00001fe0 <SW_trap_0xfe>:
    1fe0:	91 d0 20 00 	ta  0
    1fe4:	01 00 00 00 	nop 
    1fe8:	01 00 00 00 	nop 
    1fec:	01 00 00 00 	nop 
    1ff0:	01 00 00 00 	nop 
    1ff4:	01 00 00 00 	nop 
    1ff8:	01 00 00 00 	nop 
    1ffc:	01 00 00 00 	nop 

00002000 <main>:
    2000:	9d e3 bf a0 	save  %sp, -96, %sp
    2004:	7f ff f8 0c 	call  34 <genxd>
    2008:	35 10 00 00 	sethi  %hi(0x40000000), %i2
    200c:	7f ff f8 10 	call  4c <genxf>
    2010:	b8 10 00 08 	mov  %o0, %i4
    2014:	7f ff f8 14 	call  64 <genyd>
    2018:	ac 10 00 08 	mov  %o0, %l6
    201c:	7f ff f8 18 	call  7c <genyf>
    2020:	ba 10 00 08 	mov  %o0, %i5
    2024:	b0 10 00 08 	mov  %o0, %i0
    2028:	d2 06 a0 00 	ld  [ %i2 ], %o1
    202c:	90 10 20 c8 	mov  0xc8, %o0
    2030:	94 10 00 16 	mov  %l6, %o2
    2034:	96 10 20 01 	mov  1, %o3
    2038:	98 10 00 18 	mov  %i0, %o4
    203c:	9a 10 20 01 	mov  1, %o5
    2040:	7f ff f8 15 	call  94 <saxpy>
    2044:	aa 10 20 c8 	mov  0xc8, %l5
    2048:	b6 10 20 00 	clr  %i3
    204c:	a6 06 20 14 	add  %i0, 0x14, %l3
    2050:	a4 10 00 1a 	mov  %i2, %l2
    2054:	a2 07 60 04 	add  %i5, 4, %l1
    2058:	a0 07 60 08 	add  %i5, 8, %l0
    205c:	b2 07 60 14 	add  %i5, 0x14, %i1
    2060:	a8 06 e0 03 	add  %i3, 3, %l4
    2064:	80 a5 00 15 	cmp  %l4, %l5
    2068:	16 80 00 24 	bge  20f8 <main+0xf8>
    206c:	84 06 e0 01 	add  %i3, 1, %g2
    2070:	86 05 7f fc 	add  %l5, -4, %g3
    2074:	85 28 a0 02 	sll  %g2, 2, %g2
    2078:	86 20 c0 1b 	sub  %g3, %i3, %g3
    207c:	82 06 00 02 	add  %i0, %g2, %g1
    2080:	86 08 ff fc 	and  %g3, -4, %g3
    2084:	84 05 80 02 	add  %l6, %g2, %g2
    2088:	86 06 c0 03 	add  %i3, %g3, %g3
    208c:	d1 04 a0 00 	ld  [ %l2 ], %f8
    2090:	87 28 e0 02 	sll  %g3, 2, %g3
    2094:	86 04 c0 03 	add  %l3, %g3, %g3
    2098:	d3 00 bf fc 	ld  [ %g2 + -4 ], %f9
    209c:	db 00 7f fc 	ld  [ %g1 + -4 ], %f13
    20a0:	93 a2 49 28 	fmuls  %f9, %f8, %f9
    20a4:	93 a3 48 29 	fadds  %f13, %f9, %f9
    20a8:	d9 00 40 00 	ld  [ %g1 ], %f12
    20ac:	d3 20 7f fc 	st  %f9, [ %g1 + -4 ]
    20b0:	d3 00 80 00 	ld  [ %g2 ], %f9
    20b4:	93 a2 49 28 	fmuls  %f9, %f8, %f9
    20b8:	93 a3 08 29 	fadds  %f12, %f9, %f9
    20bc:	d7 00 60 04 	ld  [ %g1 + 4 ], %f11
    20c0:	d3 20 40 00 	st  %f9, [ %g1 ]
    20c4:	d3 00 a0 04 	ld  [ %g2 + 4 ], %f9
    20c8:	93 a2 49 28 	fmuls  %f9, %f8, %f9
    20cc:	93 a2 c8 29 	fadds  %f11, %f9, %f9
    20d0:	d5 00 60 08 	ld  [ %g1 + 8 ], %f10
    20d4:	d3 20 60 04 	st  %f9, [ %g1 + 4 ]
    20d8:	d3 00 a0 08 	ld  [ %g2 + 8 ], %f9
    20dc:	93 a2 49 28 	fmuls  %f9, %f8, %f9
    20e0:	93 a2 88 29 	fadds  %f10, %f9, %f9
    20e4:	d3 20 60 08 	st  %f9, [ %g1 + 8 ]
    20e8:	82 00 60 10 	add  %g1, 0x10, %g1
    20ec:	80 a0 40 03 	cmp  %g1, %g3
    20f0:	12 bf ff ea 	bne  2098 <main+0x98>
    20f4:	84 00 a0 10 	add  %g2, 0x10, %g2
    20f8:	90 10 00 15 	mov  %l5, %o0
    20fc:	92 10 20 03 	mov  3, %o1
    2100:	94 10 00 1c 	mov  %i4, %o2
    2104:	96 10 20 01 	mov  1, %o3
    2108:	98 10 00 1d 	mov  %i5, %o4
    210c:	7f ff f8 14 	call  15c <u8axpy>
    2110:	9a 10 20 01 	mov  1, %o5
    2114:	80 a6 e0 00 	cmp  %i3, 0
    2118:	02 80 00 0c 	be  2148 <main+0x148>
    211c:	82 10 20 00 	clr  %g1
    2120:	c4 0f 00 01 	ldub  [ %i4 + %g1 ], %g2
    2124:	c6 0f 40 01 	ldub  [ %i5 + %g1 ], %g3
    2128:	88 00 80 02 	add  %g2, %g2, %g4
    212c:	84 01 00 02 	add  %g4, %g2, %g2
    2130:	84 00 80 03 	add  %g2, %g3, %g2
    2134:	c4 2f 40 01 	stb  %g2, [ %i5 + %g1 ]
    2138:	82 00 60 01 	inc  %g1
    213c:	80 a0 40 1b 	cmp  %g1, %i3
    2140:	32 bf ff f9 	bne,a   2124 <main+0x124>
    2144:	c4 0f 00 01 	ldub  [ %i4 + %g1 ], %g2
    2148:	80 a5 00 15 	cmp  %l4, %l5
    214c:	16 80 00 24 	bge  21dc <main+0x1dc>
    2150:	86 06 c0 11 	add  %i3, %l1, %g3
    2154:	96 05 7f fc 	add  %l5, -4, %o3
    2158:	82 07 40 1b 	add  %i5, %i3, %g1
    215c:	96 22 c0 1b 	sub  %o3, %i3, %o3
    2160:	84 07 00 1b 	add  %i4, %i3, %g2
    2164:	96 0a ff fc 	and  %o3, -4, %o3
    2168:	96 00 c0 0b 	add  %g3, %o3, %o3
    216c:	da 08 80 00 	ldub  [ %g2 ], %o5
    2170:	de 08 40 00 	ldub  [ %g1 ], %o7
    2174:	94 03 40 0d 	add  %o5, %o5, %o2
    2178:	9a 02 80 0d 	add  %o2, %o5, %o5
    217c:	9a 03 40 0f 	add  %o5, %o7, %o5
    2180:	c8 08 60 01 	ldub  [ %g1 + 1 ], %g4
    2184:	da 28 40 00 	stb  %o5, [ %g1 ]
    2188:	de 08 a0 01 	ldub  [ %g2 + 1 ], %o7
    218c:	9a 03 c0 0f 	add  %o7, %o7, %o5
    2190:	9e 03 40 0f 	add  %o5, %o7, %o7
    2194:	9e 03 c0 04 	add  %o7, %g4, %o7
    2198:	c6 08 60 02 	ldub  [ %g1 + 2 ], %g3
    219c:	de 28 60 01 	stb  %o7, [ %g1 + 1 ]
    21a0:	c8 08 a0 02 	ldub  [ %g2 + 2 ], %g4
    21a4:	9e 01 00 04 	add  %g4, %g4, %o7
    21a8:	88 03 c0 04 	add  %o7, %g4, %g4
    21ac:	88 01 00 03 	add  %g4, %g3, %g4
    21b0:	d8 08 60 03 	ldub  [ %g1 + 3 ], %o4
    21b4:	c8 28 60 02 	stb  %g4, [ %g1 + 2 ]
    21b8:	c6 08 a0 03 	ldub  [ %g2 + 3 ], %g3
    21bc:	88 00 c0 03 	add  %g3, %g3, %g4
    21c0:	86 01 00 03 	add  %g4, %g3, %g3
    21c4:	86 00 c0 0c 	add  %g3, %o4, %g3
    21c8:	c6 28 60 03 	stb  %g3, [ %g1 + 3 ]
    21cc:	82 00 60 04 	add  %g1, 4, %g1
    21d0:	80 a0 40 0b 	cmp  %g1, %o3
    21d4:	12 bf ff e6 	bne  216c <main+0x16c>
    21d8:	84 00 a0 04 	add  %g2, 4, %g2
    21dc:	90 10 00 15 	mov  %l5, %o0
    21e0:	92 10 20 05 	mov  5, %o1
    21e4:	94 10 00 1c 	mov  %i4, %o2
    21e8:	96 10 20 01 	mov  1, %o3
    21ec:	98 10 00 1d 	mov  %i5, %o4
    21f0:	7f ff f8 38 	call  2d0 <u16axpy>
    21f4:	9a 10 20 01 	mov  1, %o5
    21f8:	80 a6 e0 00 	cmp  %i3, 0
    21fc:	9e 06 c0 1b 	add  %i3, %i3, %o7
    2200:	02 80 00 0c 	be  2230 <main+0x230>
    2204:	82 10 20 00 	clr  %g1
    2208:	c4 17 00 01 	lduh  [ %i4 + %g1 ], %g2
    220c:	c6 17 40 01 	lduh  [ %i5 + %g1 ], %g3
    2210:	89 28 a0 02 	sll  %g2, 2, %g4
    2214:	84 01 00 02 	add  %g4, %g2, %g2
    2218:	84 00 80 03 	add  %g2, %g3, %g2
    221c:	c4 37 40 01 	sth  %g2, [ %i5 + %g1 ]
    2220:	82 00 60 02 	add  %g1, 2, %g1
    2224:	80 a0 40 0f 	cmp  %g1, %o7
    2228:	32 bf ff f9 	bne,a   220c <main+0x20c>
    222c:	c4 17 00 01 	lduh  [ %i4 + %g1 ], %g2
    2230:	80 a5 00 15 	cmp  %l4, %l5
    2234:	16 80 00 26 	bge  22cc <main+0x2cc>
    2238:	84 06 c0 1b 	add  %i3, %i3, %g2
    223c:	96 05 7f fc 	add  %l5, -4, %o3
    2240:	82 07 40 02 	add  %i5, %g2, %g1
    2244:	96 22 c0 1b 	sub  %o3, %i3, %o3
    2248:	84 07 00 02 	add  %i4, %g2, %g2
    224c:	96 0a ff fc 	and  %o3, -4, %o3
    2250:	96 06 c0 0b 	add  %i3, %o3, %o3
    2254:	96 02 c0 0b 	add  %o3, %o3, %o3
    2258:	96 04 00 0b 	add  %l0, %o3, %o3
    225c:	da 10 80 00 	lduh  [ %g2 ], %o5
    2260:	de 10 40 00 	lduh  [ %g1 ], %o7
    2264:	95 2b 60 02 	sll  %o5, 2, %o2
    2268:	9a 02 80 0d 	add  %o2, %o5, %o5
    226c:	9a 03 40 0f 	add  %o5, %o7, %o5
    2270:	c8 10 60 02 	lduh  [ %g1 + 2 ], %g4
    2274:	da 30 40 00 	sth  %o5, [ %g1 ]
    2278:	de 10 a0 02 	lduh  [ %g2 + 2 ], %o7
    227c:	9b 2b e0 02 	sll  %o7, 2, %o5
    2280:	9e 03 40 0f 	add  %o5, %o7, %o7
    2284:	9e 03 c0 04 	add  %o7, %g4, %o7
    2288:	c6 10 60 04 	lduh  [ %g1 + 4 ], %g3
    228c:	de 30 60 02 	sth  %o7, [ %g1 + 2 ]
    2290:	c8 10 a0 04 	lduh  [ %g2 + 4 ], %g4
    2294:	9f 29 20 02 	sll  %g4, 2, %o7
    2298:	88 03 c0 04 	add  %o7, %g4, %g4
    229c:	88 01 00 03 	add  %g4, %g3, %g4
    22a0:	d8 10 60 06 	lduh  [ %g1 + 6 ], %o4
    22a4:	c8 30 60 04 	sth  %g4, [ %g1 + 4 ]
    22a8:	c6 10 a0 06 	lduh  [ %g2 + 6 ], %g3
    22ac:	89 28 e0 02 	sll  %g3, 2, %g4
    22b0:	86 01 00 03 	add  %g4, %g3, %g3
    22b4:	86 00 c0 0c 	add  %g3, %o4, %g3
    22b8:	c6 30 60 06 	sth  %g3, [ %g1 + 6 ]
    22bc:	82 00 60 08 	add  %g1, 8, %g1
    22c0:	80 a0 40 0b 	cmp  %g1, %o3
    22c4:	12 bf ff e6 	bne  225c <main+0x25c>
    22c8:	84 00 a0 08 	add  %g2, 8, %g2
    22cc:	90 10 00 15 	mov  %l5, %o0
    22d0:	92 10 20 64 	mov  0x64, %o1
    22d4:	94 10 00 1c 	mov  %i4, %o2
    22d8:	96 10 20 01 	mov  1, %o3
    22dc:	98 10 00 1d 	mov  %i5, %o4
    22e0:	7f ff f8 33 	call  3ac <u32axpy>
    22e4:	9a 10 20 01 	mov  1, %o5
    22e8:	80 a6 e0 00 	cmp  %i3, 0
    22ec:	89 2e e0 02 	sll  %i3, 2, %g4
    22f0:	02 80 00 0b 	be  231c <main+0x31c>
    22f4:	82 10 20 00 	clr  %g1
    22f8:	c4 07 00 01 	ld  [ %i4 + %g1 ], %g2
    22fc:	c6 07 40 01 	ld  [ %i5 + %g1 ], %g3
    2300:	84 58 a0 64 	smul  %g2, 0x64, %g2
    2304:	84 00 c0 02 	add  %g3, %g2, %g2
    2308:	c4 27 40 01 	st  %g2, [ %i5 + %g1 ]
    230c:	82 00 60 04 	add  %g1, 4, %g1
    2310:	80 a0 40 04 	cmp  %g1, %g4
    2314:	32 bf ff fa 	bne,a   22fc <main+0x2fc>
    2318:	c4 07 00 01 	ld  [ %i4 + %g1 ], %g2
    231c:	80 a5 00 15 	cmp  %l4, %l5
    2320:	16 80 00 23 	bge  23ac <main+0x3ac>
    2324:	86 05 7f fc 	add  %l5, -4, %g3
    2328:	84 06 e0 01 	add  %i3, 1, %g2
    232c:	85 28 a0 02 	sll  %g2, 2, %g2
    2330:	86 20 c0 1b 	sub  %g3, %i3, %g3
    2334:	82 07 40 02 	add  %i5, %g2, %g1
    2338:	86 08 ff fc 	and  %g3, -4, %g3
    233c:	84 07 00 02 	add  %i4, %g2, %g2
    2340:	b6 06 c0 03 	add  %i3, %g3, %i3
    2344:	b7 2e e0 02 	sll  %i3, 2, %i3
    2348:	b6 06 40 1b 	add  %i1, %i3, %i3
    234c:	c6 00 bf fc 	ld  [ %g2 + -4 ], %g3
    2350:	d8 00 7f fc 	ld  [ %g1 + -4 ], %o4
    2354:	86 58 e0 64 	smul  %g3, 0x64, %g3
    2358:	86 03 00 03 	add  %o4, %g3, %g3
    235c:	da 00 40 00 	ld  [ %g1 ], %o5
    2360:	c6 20 7f fc 	st  %g3, [ %g1 + -4 ]
    2364:	c6 00 80 00 	ld  [ %g2 ], %g3
    2368:	86 58 e0 64 	smul  %g3, 0x64, %g3
    236c:	86 03 40 03 	add  %o5, %g3, %g3
    2370:	de 00 60 04 	ld  [ %g1 + 4 ], %o7
    2374:	c6 20 40 00 	st  %g3, [ %g1 ]
    2378:	c6 00 a0 04 	ld  [ %g2 + 4 ], %g3
    237c:	86 58 e0 64 	smul  %g3, 0x64, %g3
    2380:	86 03 c0 03 	add  %o7, %g3, %g3
    2384:	c8 00 60 08 	ld  [ %g1 + 8 ], %g4
    2388:	c6 20 60 04 	st  %g3, [ %g1 + 4 ]
    238c:	c6 00 a0 08 	ld  [ %g2 + 8 ], %g3
    2390:	86 58 e0 64 	smul  %g3, 0x64, %g3
    2394:	86 01 00 03 	add  %g4, %g3, %g3
    2398:	c6 20 60 08 	st  %g3, [ %g1 + 8 ]
    239c:	82 00 60 10 	add  %g1, 0x10, %g1
    23a0:	80 a0 40 1b 	cmp  %g1, %i3
    23a4:	12 bf ff ea 	bne  234c <main+0x34c>
    23a8:	84 00 a0 10 	add  %g2, 0x10, %g2
    23ac:	aa 05 62 58 	add  %l5, 0x258, %l5
    23b0:	80 a5 6e d8 	cmp  %l5, 0xed8
    23b4:	02 80 00 19 	be  2418 <main+0x418>
    23b8:	90 10 00 15 	mov  %l5, %o0
    23bc:	d2 06 a0 00 	ld  [ %i2 ], %o1
    23c0:	94 10 00 16 	mov  %l6, %o2
    23c4:	96 10 20 01 	mov  1, %o3
    23c8:	98 10 00 18 	mov  %i0, %o4
    23cc:	7f ff f7 32 	call  94 <saxpy>
    23d0:	9a 10 20 01 	mov  1, %o5
    23d4:	b6 0d 60 03 	and  %l5, 3, %i3
    23d8:	82 10 20 00 	clr  %g1
    23dc:	85 2e e0 02 	sll  %i3, 2, %g2
    23e0:	80 a6 e0 00 	cmp  %i3, 0
    23e4:	02 bf ff 1f 	be  2060 <main+0x60>
    23e8:	d5 06 a0 00 	ld  [ %i2 ], %f10
    23ec:	d1 05 80 01 	ld  [ %l6 + %g1 ], %f8
    23f0:	d3 06 00 01 	ld  [ %i0 + %g1 ], %f9
    23f4:	91 a2 09 2a 	fmuls  %f8, %f10, %f8
    23f8:	91 a2 48 28 	fadds  %f9, %f8, %f8
    23fc:	d1 26 00 01 	st  %f8, [ %i0 + %g1 ]
    2400:	82 00 60 04 	add  %g1, 4, %g1
    2404:	80 a0 40 02 	cmp  %g1, %g2
    2408:	32 bf ff fa 	bne,a   23f0 <main+0x3f0>
    240c:	d1 05 80 01 	ld  [ %l6 + %g1 ], %f8
    2410:	10 bf ff 15 	b  2064 <main+0x64>
    2414:	a8 06 e0 03 	add  %i3, 3, %l4
    2418:	81 c7 e0 08 	ret 
    241c:	81 e8 00 00 	restore 
